Component: ARM Compiler 5.06 update 2 (build 183) Tool: armlink [4d35b7]

==============================================================================

Section Cross References

    stm32f10x_target.o(.text) refers to misc.o(.text) for NVIC_Init
    stm32f10x_target.o(.text) refers to stm32f10x_rcc.o(.text) for RCC_AHBPeriphClockCmd
    stm32f10x_target.o(.text) refers to stm32f10x_pwr.o(.text) for PWR_EnterSTOPMode
    stm32f10x_target.o(.text) refers to sleepctrl.o(.text) for SaveBKP_DRPara
    stm32f10x_target.o(.text) refers to bkpregister.o(.text) for SaveBKP_DRData
    stm32f10x_target.o(.text) refers to migrate.o(.text) for NVIC_GenerateSystemReset
    stm32f10x_target.o(.text) refers to stm32f10x_dbgmcu.o(.text) for DBGMCU_Config
    stm32f10x_target.o(.text) refers to rtc.o(.text) for RTCConfigurationPart1
    stm32f10x_target.o(.text) refers to wdg.o(.text) for Initia_wdg
    stm32f10x_target.o(.text) refers to led.o(.text) for InitiaLED
    stm32f10x_target.o(.text) refers to usart.o(.text) for InitCommStruc
    stm32f10x_target.o(.text) refers to tim.o(.text) for InitTim2
    stm32f10x_target.o(.text) refers to 24c02.o(.text) for I2C_EE_Init
    stm32f10x_target.o(.text) refers to power.o(.text) for Initia_RFPower
    stm32f10x_target.o(.text) refers to rxtx.o(.text) for InitRxTx
    stm32f10x_target.o(.text) refers to ptt_lnw.o(.text) for PTT_Init_IO
    stm32f10x_target.o(.text) refers to si446x.o(.text) for SI446X_ModuleInit
    stm32f10x_target.o(.text) refers to stm32f10x_flash_1.o(.text) for FLASH_PrefetchBufferCmd
    stm32f10x_target.o(.text) refers to stm32f10x_target.o(.bss) for .bss
    stm32f10x_target.o(.text) refers to stm32f10x_target.o(.data) for .data
    stm32f10x_it.o(.text) refers to stm32f10x_it.o(.emb_text) for wait
    stm32f10x_it.o(.text) refers to debug.o(.text) for UartResponseMsg
    stm32f10x_it.o(.text) refers to gps.o(.text) for Exti1_Int
    stm32f10x_it.o(.text) refers to adc.o(.text) for DMA_ADC1_ISR
    stm32f10x_it.o(.text) refers to tim.o(.text) for Tim2Interrupt
    stm32f10x_it.o(.text) refers to usart.o(.text) for Usart1Interrupt
    stm32f10x_it.o(.text) refers to si446x.o(.text) for SI446X_A_TxRxClockIRQS
    stm32f10x_it.o(.text) refers to rtc.o(.text) for RTCAlarmInt
    stm32f10x_startup.o(RESET) refers to stm32f10x_startup.o(STACK) for __initial_sp
    stm32f10x_startup.o(RESET) refers to stm32f10x_startup.o(.text) for Reset_Handler
    stm32f10x_startup.o(RESET) refers to stm32f10x_it.o(.text) for NMIException
    stm32f10x_startup.o(.text) refers to entry.o(.ARM.Collect$$$$00000000) for __main
    ioctrl.o(.text) refers to stm32f10x_gpio.o(.text) for GPIO_ResetBits
    ioctrl.o(.text) refers to gps.o(.text) for ResetGpsPulseEn
    ioctrl.o(.text) refers to common.o(.text) for Delay_ms
    parastorage.o(.text) refers to common.o(.text) for EEpromChkSum
    parastorage.o(.text) refers to strtoul.o(.text) for strtoul
    parastorage.o(.text) refers to 24c02.o(.text) for I2C_EE_BufferWrite
    parastorage.o(.text) refers to printfa.o(i.__0sprintf) for __2sprintf
    parastorage.o(.text) refers to flashctrl.o(.text) for FlashRead
    parastorage.o(.text) refers to atol.o(.text) for atol
    parastorage.o(.text) refers to strlen.o(.text) for strlen
    parastorage.o(.text) refers to strcpy.o(.text) for strcpy
    parastorage.o(.text) refers to strncpy.o(.text) for strncpy
    parastorage.o(.text) refers to parastorage.o(.data) for .data
    parastorage.o(.text) refers to aisinfo.o(.bss) for AisStaticPara
    parastorage.o(.text) refers to deviceinfo.o(.bss) for DevStaticPara
    parastorage.o(.text) refers to rand.o(.text) for srand
    rxtxctrl.o(.text) refers to rxtx.o(.text) for RxTxSwitch
    systemtick.o(.text) refers to systemtick.o(.data) for .data
    datalinkservice.o(.text) refers to malloc.o(i.malloc) for malloc
    datalinkservice.o(.text) refers to memseta.o(.text) for __aeabi_memclr
    datalinkservice.o(.text) refers to datalinkservice.o(.bss) for .bss
    datalinkservice.o(.text) refers to tim.o(.text) for GetSlotSum
    datalinkservice.o(.text) refers to malloc.o(i.free) for free
    datalinkservice.o(.text) refers to common.o(.text) for AIS_Cal_CRC16
    linkmanagemententity.o(.text) refers to malloc.o(i.malloc) for malloc
    linkmanagemententity.o(.text) refers to memseta.o(.text) for __aeabi_memclr4
    linkmanagemententity.o(.text) refers to datalinkservice.o(.text) for DLS_Inst1FrameRxFifoDeque
    linkmanagemententity.o(.text) refers to common.o(.text) for AIS_Cal_CRC16
    linkmanagemententity.o(.text) refers to malloc.o(i.free) for free
    linkmanagemententity.o(.text) refers to debug.o(.text) for UartResponseMsg
    linkmanagemententity.o(.text) refers to aisdigitalinterface.o(.text) for AISDI_BuildVDM
    linkmanagemententity.o(.text) refers to memcpya.o(.text) for __aeabi_memcpy
    linkmanagemententity.o(.text) refers to msgmanager.o(.text) for MSGMAN_RxMsgListInsert
    linkmanagemententity.o(.text) refers to linkmanagemententity.o(.bss) for .bss
    linkmanagemententity.o(.text) refers to testing.o(.data) for RxTestInstance
    physicallayer.o(.text) refers to physicallayer.o(.data) for .data
    ais_msgmodu.o(.text) refers to gpsctrl.o(.text) for IniGpsMsgStru
    ais_msgmodu.o(.text) refers to aismsgmodule.o(.text) for AISMSG_BuildMsg1
    ais_msgmodu.o(.text) refers to strncpy.o(.text) for strncpy
    ais_msgmodu.o(.text) refers to ais_msgmodu.o(.bss) for .bss
    ais_msgmodu.o(.text) refers to aisinfo.o(.bss) for AisStaticPara
    ais_msgmodu.o(.text) refers to aisdigitalinterface.o(.text) for AsciiToSixBinCode
    ais_msgmodu.o(.text) refers to ais_msgmodu.o(.data) for .data
    ais_msgmodu.o(.text) refers to aisdigitalinterface.o(.bss) for ABMPara
    ais_msgmodu.o(.text) refers to tdma.o(.text) for TDMA_InstReportIntervalSample
    ais_msgmodu.o(.text) refers to dflti.o(.text) for __aeabi_i2d
    ais_msgmodu.o(.text) refers to sqrt.o(i.sqrt) for sqrt
    ais_msgmodu.o(.text) refers to d2f.o(.text) for __aeabi_d2f
    ais_msgmodu.o(.text) refers to f2d.o(.text) for __aeabi_f2d
    ais_msgmodu.o(.text) refers to dadd.o(.text) for __aeabi_dadd
    ais_msgmodu.o(.text) refers to fmul.o(.text) for __aeabi_fmul
    ais_msgmodu.o(.text) refers to ffixui.o(.text) for __aeabi_f2uiz
    ais_msgmodu.o(.text) refers to dmul.o(.text) for __aeabi_dmul
    ais_msgmodu.o(.text) refers to ddiv.o(.text) for __aeabi_ddiv
    ais_msgmodu.o(.text) refers to dscalb.o(.text) for __ARM_scalbn
    ais_msgmodu.o(.text) refers to sin.o(i.sin) for sin
    ais_msgmodu.o(.text) refers to pow.o(i.pow) for pow
    ais_msgmodu.o(.text) refers to cos.o(i.cos) for cos
    ais_msgmodu.o(.text) refers to asin.o(i.asin) for asin
    ais_msgmodu.o(.text) refers to dfixi.o(.text) for __aeabi_d2iz
    ais_msgmodu.o(.text) refers to dfixui.o(.text) for __aeabi_d2uiz
    ais_msgmodu.o(.text) refers to debug.o(.text) for usart_printf
    ais_msgmodu.o(.text) refers to gpsctrl.o(.bss) for GpsPara
    aisdigitalinterface.o(.text) refers to tim.o(.text) for GetSlotNum
    aisdigitalinterface.o(.text) refers to debug.o(.text) for debug_printf
    aisdigitalinterface.o(.text) refers to strcpy.o(.text) for strcpy
    aisdigitalinterface.o(.text) refers to printfa.o(i.__0sprintf) for __2sprintf
    aisdigitalinterface.o(.text) refers to strncat.o(.text) for strncat
    aisdigitalinterface.o(.text) refers to strcat.o(.text) for strcat
    aisdigitalinterface.o(.text) refers to ais_msgmodu.o(.text) for bitmap_get_value_for_U8
    aisdigitalinterface.o(.text) refers to aisdigitalinterface.o(.bss) for .bss
    aisdigitalinterface.o(.text) refers to aisdigitalinterface.o(.constdata) for .constdata
    aisdigitalinterface.o(.text) refers to aisdigitalinterface.o(.data) for .data
    aisdigitalinterface.o(.text) refers to strncmp.o(.text) for strncmp
    aisdigitalinterface.o(.text) refers to uartmsg.o(.text) for GetSegment
    aisdigitalinterface.o(.text) refers to strlen.o(.text) for strlen
    aisdigitalinterface.o(.text) refers to strtoul.o(.text) for strtoul
    aisdigitalinterface.o(.text) refers to deviceinfo.o(.bss) for DevDynamicPara
    aismsgmodule.o(.text) refers to ais_msgmodu.o(.text) for bitmap_set_value
    aismsgmodule.o(.text) refers to aismsgmodule.o(.bss) for .bss
    slot.o(.text) refers to tim.o(.text) for GetFrameNum
    slot.o(.text) refers to rand.o(.text) for rand
    slot.o(.text) refers to slot.o(.bss) for .bss
    tdma.o(.text) refers to dflti.o(.text) for __aeabi_i2d
    tdma.o(.text) refers to dmul.o(.text) for __aeabi_dmul
    tdma.o(.text) refers to dfixi.o(.text) for __aeabi_d2iz
    tdma.o(.text) refers to slot.o(.text) for CalcSlotNum
    tdma.o(.text) refers to rand.o(.text) for rand
    tdma.o(.text) refers to gpsctrl.o(.text) for IsGpsFix
    tdma.o(.text) refers to aisinfo.o(.text) for AISINFO_InstRecStationGetQuantity
    tdma.o(.text) refers to tdma.o(.bss) for .bss
    tdma.o(.text) refers to gpsctrl.o(.bss) for GpsPara
    tdma.o(.text) refers to msgmanager.o(.text) for SendMsg3
    tdma.o(.text) refers to systemtick.o(.text) for SetTimePeriodProcess
    tdma.o(.text) refers to common.o(.text) for Random
    tdma.o(.text) refers to deviceinfo.o(.bss) for DevStaticPara
    tdma.o(.text) refers to tim.o(.text) for GetFrameNum
    tdma.o(.text) refers to debug.o(.text) for debug_printf
    tdma.o(.text) refers to tdma.o(.constdata) for .constdata
    tdma.o(.text) refers to tdma.o(.conststring) for .conststring
    deviceinfo.o(.text) refers to deviceinfo.o(.bss) for .bss
    deviceinfo.o(.text) refers to powerup.o(.data) for ucStandbyWakeupFlg
    aisinfo.o(.text) refers to strcpy.o(.text) for strcpy
    aisinfo.o(.text) refers to aisinfo.o(.bss) for .bss
    msgmanager.o(.text) refers to slot.o(.text) for CalcFrameNum
    msgmanager.o(.text) refers to common.o(.text) for Random
    msgmanager.o(.text) refers to ais_msgmodu.o(.text) for InitMsg5
    msgmanager.o(.text) refers to tim.o(.text) for GetSlotNum
    msgmanager.o(.text) refers to debug.o(.text) for debug_printf
    msgmanager.o(.text) refers to msgmanager.o(.bss) for .bss
    msgmanager.o(.text) refers to aismsgmodule.o(.bss) for AISMsgBinBuff_5
    msgmanager.o(.text) refers to msgmanager.o(.constdata) for .constdata
    msgmanager.o(.text) refers to gpsctrl.o(.text) for GetGpsPowerupFixState
    msgmanager.o(.text) refers to deviceinfo.o(.bss) for DevStaticPara
    msgmanager.o(.text) refers to aisdigitalinterface.o(.text) for AISDI_ABMIsValid
    msgmanager.o(.text) refers to aismsgmodule.o(.text) for AISMSG_ConvertToMsgType
    msgmanager.o(.text) refers to aisdigitalinterface.o(.bss) for ABMPara
    msgmanager.o(.text) refers to tdma.o(.text) for TDMA_InstSchedule
    msgmanager.o(.text) refers to aisinfo.o(.text) for AISINFO_InstRecStationQuantityIncrease
    msgmanager.o(.text) refers to aisinfo.o(.bss) for AisStaticPara
    aisptlmain.o(.text) refers to ais_msgmodu.o(.text) for UpdateAisDynamicInfo
    aisptlmain.o(.text) refers to datalinkservice.o(.text) for DLS_InstPacketProbeProcess
    aisptlmain.o(.text) refers to msgmanager.o(.text) for MSGMAN_MsgRxProcess
    aisptlmain.o(.text) refers to linkmanagemententity.o(.text) for LME_BinMsgPort
    aisptlmain.o(.text) refers to aisdigitalinterface.o(.text) for AISDI_SentencePrint
    aisptlmain.o(.text) refers to transceiverctrl.o(.text) for TRCTRL_TransmitProcess
    adjust.o(.text) refers to systemtick.o(.text) for SetTimePeriodProcess
    adjust.o(.text) refers to stm32f10x_rcc.o(.text) for RCC_GetFlagStatus
    adjust.o(.text) refers to debug.o(.text) for UartResponseMsg
    adjust.o(.text) refers to rtc.o(.text) for RTCConfigurationPart2
    adjust.o(.text) refers to gpsctrl.o(.text) for IsGpsPowerupProtect
    adjust.o(.text) refers to gps.o(.text) for ResetTimSaveState
    adjust.o(.text) refers to dfltui.o(.text) for __aeabi_ui2d
    adjust.o(.text) refers to dflti.o(.text) for __aeabi_i2d
    adjust.o(.text) refers to ddiv.o(.text) for __aeabi_ddiv
    adjust.o(.text) refers to dadd.o(.text) for __aeabi_dadd
    adjust.o(.text) refers to dfixui.o(.text) for __aeabi_d2uiz
    adjust.o(.text) refers to dmul.o(.text) for __aeabi_dmul
    adjust.o(.text) refers to tim.o(.text) for CalcTimPhaseAdjust
    adjust.o(.text) refers to adjust.o(.bss) for .bss
    adjust.o(.text) refers to rtc.o(.data) for struRtcPara
    adjust.o(.text) refers to tim.o(.data) for TimCnt
    adjust.o(.text) refers to rtc.o(.bss) for struRtcTimPhase1
    common.o(.text) refers to rand.o(.text) for rand
    common.o(.text) refers to common.o(.constdata) for .constdata
    gpsctrl.o(.text) refers to systemtick.o(.text) for SetTimePeriodProcess
    gpsctrl.o(.text) refers to ioctrl.o(.text) for IO_Ctrl
    gpsctrl.o(.text) refers to strncmp.o(.text) for strncmp
    gpsctrl.o(.text) refers to uartmsg.o(.text) for GetSegment
    gpsctrl.o(.text) refers to gpsctrl.o(.bss) for .bss
    gpsctrl.o(.text) refers to powerup.o(.data) for ucStandbyWakeupFlg
    gpsctrl.o(.text) refers to atof.o(i.atof) for atof
    gpsctrl.o(.text) refers to d2f.o(.text) for __aeabi_d2f
    gpsctrl.o(.text) refers to fmul.o(.text) for __aeabi_fmul
    gpsctrl.o(.text) refers to ffixui.o(.text) for __aeabi_f2uiz
    gpsctrl.o(.text) refers to dflti.o(.text) for __aeabi_i2d
    gpsctrl.o(.text) refers to ddiv.o(.text) for __aeabi_ddiv
    gpsctrl.o(.text) refers to ais_msgmodu.o(.text) for GetDistance
    gpsctrl.o(.text) refers to cdrcmple.o(.text) for __aeabi_cdrcmple
    gpsctrl.o(.text) refers to f2d.o(.text) for __aeabi_f2d
    gpsctrl.o(.text) refers to dadd.o(.text) for __aeabi_dadd
    gpsctrl.o(.text) refers to dmul.o(.text) for __aeabi_dmul
    gpsctrl.o(.text) refers to dfixui.o(.text) for __aeabi_d2uiz
    gpsctrl.o(.text) refers to strlen.o(.text) for strlen
    gpsctrl.o(.text) refers to strtoul.o(.text) for strtoul
    gpsctrl.o(.text) refers to deviceinfo.o(.bss) for DevDynamicPara
    gpsctrl.o(.text) refers to debug.o(.text) for UartResponseMsg
    gpsctrl.o(.text) refers to tim.o(.text) for GetSlotNum
    gpsctrl.o(.text) refers to ledctrl.o(.text) for LEDInit
    gpsctrl.o(.text) refers to parastorage.o(.text) for Para_Read
    gpsctrl.o(.text) refers to printfa.o(i.__0sprintf) for __2sprintf
    gpsctrl.o(.text) refers to strcat.o(.text) for strcat
    gpsctrl.o(.text) refers to atol.o(.text) for atol
    gpsctrl.o(.text) refers to gpsctrl.o(.data) for .data
    gpsctrl.o(.text) refers to gpsctrl.o(.constdata) for .constdata
    gpsctrl.o(.text) refers to common.o(.text) for TIME_DateTimeOffset28Days
    gpsctrl.o(.text) refers to taskmanager.o(.text) for TASK_TaskTimEnable
    gpsctrl.o(.text) refers to taskmanager.o(.bss) for RecordCloseTimeTask
    gpsctrl.o(.text) refers to ledctrl.o(.bss) for LEDCtrlPara
    gpsctrl.o(.text) refers to gpsctrl.o(.conststring) for .conststring
    gpsctrl.o(.text) refers to selfcheck.o(.text) for SLFCHK_GetCheckSelectValue
    initial.o(.text) refers to deviceinfo.o(.text) for DEVINFO_ModuleInit
    initial.o(.text) refers to aisinfo.o(.text) for AISINFO_ModuleInit
    initial.o(.text) refers to parastorage.o(.text) for IniEEPROM_Para
    initial.o(.text) refers to gpsctrl.o(.text) for IniGpsPara
    initial.o(.text) refers to ais_msgmodu.o(.text) for InitGpsCell
    initial.o(.text) refers to ledctrl.o(.text) for InitaLEDCtrlPara
    initial.o(.text) refers to sleepctrl.o(.text) for IniSleepCtrlPara
    initial.o(.text) refers to adjust.o(.text) for InitTimAdjust
    initial.o(.text) refers to rtc.o(.text) for InitRtcPara
    initial.o(.text) refers to power.o(.text) for InitPowerStru
    initial.o(.text) refers to ubloxprotocol.o(.text) for UBX_ModuleInit
    initial.o(.text) refers to physicallayer.o(.text) for PHY_ModuleInit
    initial.o(.text) refers to datalinkservice.o(.text) for DLS_ModuleInit
    initial.o(.text) refers to linkmanagemententity.o(.text) for LME_ModuleInit
    initial.o(.text) refers to transceiverctrl.o(.text) for TRCTRL_ModuleInit
    initial.o(.text) refers to aisdigitalinterface.o(.text) for AISDI_ModuleInit
    initial.o(.text) refers to msgmanager.o(.text) for MSGMAN_ModuleInit
    initial.o(.text) refers to tdma.o(.text) for TDMA_ModuleInit
    initial.o(.text) refers to testing.o(.text) for InitRxTestStruct
    initial.o(.text) refers to taskmanager.o(.text) for TASK_ModuleInit
    initial.o(.text) refers to rtc.o(.data) for struRtcPara
    initial.o(.text) refers to testing.o(.data) for RxTestInstance
    ledctrl.o(.text) refers to systemtick.o(.text) for SetTimePeriodProcess
    ledctrl.o(.text) refers to ioctrl.o(.text) for IO_Ctrl
    ledctrl.o(.text) refers to ledctrl.o(.bss) for .bss
    ledctrl.o(.text) refers to ledctrl.o(.constdata) for .constdata
    main.o(.text) refers to powerup.o(.text) for PowerUpProcess
    main.o(.text) refers to wdg.o(.text) for Feed_Dog
    main.o(.text) refers to systemtick.o(.text) for LocalClockCtrlMainProcess
    main.o(.text) refers to adjust.o(.text) for RtcClockChoice
    main.o(.text) refers to ledctrl.o(.text) for LEDCtrlProcess
    main.o(.text) refers to usart.o(.text) for GetCOMMMess
    main.o(.text) refers to transceiverctrl.o(.text) for TRCTRL_TransmitProcess
    main.o(.text) refers to datalinkservice.o(.text) for DLS_InstPacketProbeProcess
    main.o(.text) refers to linkmanagemententity.o(.text) for LME_BinMsgPort
    main.o(.text) refers to selfcheck.o(.text) for SLFCHK_InstSelfCheckProcess
    main.o(.text) refers to common.o(.text) for Delay_ms
    main.o(.text) refers to printfa.o(i.__0sprintf) for __2sprintf
    main.o(.text) refers to si446x.o(.text) for SI446X_GetRssi
    main.o(.text) refers to strcat.o(.text) for strcat
    main.o(.text) refers to debug.o(.text) for UartResponseMsg
    main.o(.text) refers to ubloxprotocol.o(.text) for UBX_GetCOMMMess
    main.o(.text) refers to gpsctrl.o(.text) for GpsCtrlProcess
    main.o(.text) refers to aisptlmain.o(.text) for AisMain
    main.o(.text) refers to ptt_lnw.o(.text) for PTT_Work_Process
    main.o(.text) refers to taskmanager.o(.text) for TASK_TaskProcess
    main.o(.text) refers to deviceinfo.o(.bss) for DevDynamicPara
    main.o(.text) refers to transceiverctrl.o(.bss) for TransceiverTxCtrlInstance
    powerup.o(.text) refers to ledctrl.o(.text) for LEDAllLight
    powerup.o(.text) refers to common.o(.text) for Delay_ms
    powerup.o(.text) refers to wdg.o(.text) for Feed_Dog
    powerup.o(.text) refers to stm32f10x_target.o(.text) for Target_SysClock_Init
    powerup.o(.text) refers to stm32f10x_rcc.o(.text) for RCC_APB1PeriphClockCmd
    powerup.o(.text) refers to stm32f10x_bkp.o(.text) for BKP_DeInit
    powerup.o(.text) refers to bkpregister.o(.text) for InitBKP_DR
    powerup.o(.text) refers to power.o(.text) for InitPowerCtrl
    powerup.o(.text) refers to initial.o(.text) for Parameter_Init
    powerup.o(.text) refers to debug.o(.text) for UartResponseMsg
    powerup.o(.text) refers to parastorage.o(.text) for Para_Read
    powerup.o(.text) refers to atol.o(.text) for atol
    powerup.o(.text) refers to printfa.o(i.__0sprintf) for __2sprintf
    powerup.o(.text) refers to stm32f10x_pwr.o(.text) for PWR_BackupAccessCmd
    powerup.o(.text) refers to wdg.o(.data) for Is_Feed_Dog
    powerup.o(.text) refers to deviceinfo.o(.bss) for DevDynamicPara
    powerup.o(.text) refers to powerup.o(.data) for .data
    powerup.o(.text) refers to flashctrl.o(.text) for FlashRead
    powerup.o(.text) refers to dfltui.o(.text) for __aeabi_ui2d
    powerup.o(.text) refers to dmul.o(.text) for __aeabi_dmul
    powerup.o(.text) refers to ddiv.o(.text) for __aeabi_ddiv
    powerup.o(.text) refers to dadd.o(.text) for __aeabi_dadd
    powerup.o(.text) refers to dfixui.o(.text) for __aeabi_d2uiz
    powerup.o(.text) refers to bkpregister.o(.bss) for arrBKPDRData
    sleepctrl.o(.text) refers to tim.o(.text) for GetSlotSum
    sleepctrl.o(.text) refers to gpsctrl.o(.text) for GetGpsOnTimEn
    sleepctrl.o(.text) refers to adjust.o(.text) for IsRtcClockSourceLSE
    sleepctrl.o(.text) refers to dfltui.o(.text) for __aeabi_ui2d
    sleepctrl.o(.text) refers to ddiv.o(.text) for __aeabi_ddiv
    sleepctrl.o(.text) refers to dflti.o(.text) for __aeabi_i2d
    sleepctrl.o(.text) refers to dmul.o(.text) for __aeabi_dmul
    sleepctrl.o(.text) refers to dadd.o(.text) for __aeabi_dadd
    sleepctrl.o(.text) refers to dfixi.o(.text) for __aeabi_d2iz
    sleepctrl.o(.text) refers to systemtick.o(.text) for SetTimePeriodProcess
    sleepctrl.o(.text) refers to sleepctrl.o(.bss) for .bss
    sleepctrl.o(.text) refers to rtc.o(.data) for struRtcPara
    testing.o(.text) refers to ledctrl.o(.text) for LEDInit
    testing.o(.text) refers to rxtxctrl.o(.text) for RxTxCtrl
    testing.o(.text) refers to transceiverctrl.o(.text) for TRCTRL_InstTransceiverTestStructInit
    testing.o(.text) refers to power.o(.text) for RF_PowerDown
    testing.o(.text) refers to si446x.o(.text) for SI446X_StateTo
    testing.o(.text) refers to systemtick.o(.text) for SetTimePeriodProcess
    testing.o(.text) refers to adjust.o(.text) for RtcClockChoice
    testing.o(.text) refers to stm32f10x_target.o(.text) for EnterStopMod
    testing.o(.text) refers to tim.o(.text) for GetSlotNum
    testing.o(.text) refers to debug.o(.text) for usart_printf
    testing.o(.text) refers to testing.o(.bss) for .bss
    testing.o(.text) refers to deviceinfo.o(.bss) for DevStaticPara
    testing.o(.text) refers to testing.o(.constdata) for .constdata
    testing.o(.text) refers to gpsctrl.o(.bss) for GpsCtrlPara
    testing.o(.text) refers to testing.o(.conststring) for .conststring
    testing.o(.text) refers to testing.o(.data) for .data
    uartmsg.o(.text) refers to strlen.o(.text) for strlen
    uartmsg.o(.text) refers to dfltui.o(.text) for __aeabi_ui2d
    uartmsg.o(.text) refers to ddiv.o(.text) for __aeabi_ddiv
    uartmsg.o(.text) refers to cdrcmple.o(.text) for __aeabi_cdrcmple
    uartmsg.o(.text) refers to dfixui.o(.text) for __aeabi_d2uiz
    uartmsg.o(.text) refers to dadd.o(.text) for __aeabi_drsub
    uartmsg.o(.text) refers to printfa.o(i.__0sprintf) for __2sprintf
    uartmsg.o(.text) refers to strcat.o(.text) for strcat
    uartmsg.o(.text) refers to aisdigitalinterface.o(.text) for AISDI_SentenceParse
    uartmsg.o(.text) refers to strncmp.o(.text) for strncmp
    uartmsg.o(.text) refers to flashctrl.o(.text) for FlashRead
    uartmsg.o(.text) refers to debug.o(.data) for DebugOutputFlag
    uartmsg.o(.text) refers to deviceinfo.o(.bss) for DevDynamicPara
    uartmsg.o(.text) refers to aisinfo.o(.bss) for AisStaticPara
    uartmsg.o(.text) refers to atol.o(.text) for atol
    uartmsg.o(.text) refers to strncpy.o(.text) for strncpy
    uartmsg.o(.text) refers to debug.o(.text) for UartResponseMsg
    uartmsg.o(.text) refers to strcpy.o(.text) for strcpy
    uartmsg.o(.text) refers to deviceinfo.o(.text) for DEVINFO_InstResetGpsOutputCnt
    uartmsg.o(.text) refers to strtoul.o(.text) for strtoul
    uartmsg.o(.text) refers to parastorage.o(.text) for Para_Save
    uartmsg.o(.text) refers to gpsctrl.o(.bss) for GpsSynCell
    uartmsg.o(.text) refers to si446x.o(.text) for SI446X_CHANGE_STATE
    uartmsg.o(.text) refers to 24c02.o(.text) for EraseAllData
    uartmsg.o(.text) refers to encrypt.o(.text) for ReadDeviceID
    uartmsg.o(.text) refers to wdg.o(.text) for Feed_Dog
    uartmsg.o(.text) refers to testing.o(.text) for IniTesting
    uartmsg.o(.text) refers to ledctrl.o(.text) for LEDInit
    uartmsg.o(.text) refers to rxtxctrl.o(.text) for RxTxCtrl
    uartmsg.o(.text) refers to atoi.o(.text) for atoi
    uartmsg.o(.text) refers to selfcheck.o(.text) for SLFCHK_InstSelfCheckStructInit
    uartmsg.o(.text) refers to testing.o(.data) for RxTestInstance
    uartmsg.o(.text) refers to strtod.o(i.strtod) for strtod
    uartmsg.o(.text) refers to gpsctrl.o(.text) for GetGpsSleepSta
    uartmsg.o(.text) refers to strncat.o(.text) for strncat
    uartmsg.o(.text) refers to sleepctrl.o(.bss) for SleepCtrlPara
    uartmsg.o(.text) refers to tim.o(.data) for gslFrameCnt
    uartmsg.o(.text) refers to dmul.o(.text) for __aeabi_dmul
    ubloxprotocol.o(.text) refers to usart.o(.text) for UartRxFIFOStructInit
    ubloxprotocol.o(.text) refers to systemtick.o(.text) for SetTimePeriodProcess
    ubloxprotocol.o(.text) refers to debug.o(.text) for debug_printf
    ubloxprotocol.o(.text) refers to ubloxprotocol.o(.bss) for .bss
    ubloxprotocol.o(.text) refers to ubloxprotocol.o(.constdata) for .constdata
    ubloxprotocol.o(.text) refers to gps.o(.text) for ResetGpsPulseEn
    transceiverctrl.o(.text) refers to malloc.o(i.malloc) for malloc
    transceiverctrl.o(.text) refers to memseta.o(.text) for __aeabi_memclr
    transceiverctrl.o(.text) refers to memcpya.o(.text) for __aeabi_memcpy
    transceiverctrl.o(.text) refers to datalinkservice.o(.text) for DLS_FrameBuildTest
    transceiverctrl.o(.text) refers to malloc.o(i.free) for free
    transceiverctrl.o(.text) refers to power.o(.text) for RF_PowerOn
    transceiverctrl.o(.text) refers to systemtick.o(.text) for SetTimePeriodProcess
    transceiverctrl.o(.text) refers to si446x.o(.text) for SI446X_StateTo
    transceiverctrl.o(.text) refers to tim.o(.text) for GetFrameNum
    transceiverctrl.o(.text) refers to rxtxctrl.o(.text) for RxTxCtrl
    transceiverctrl.o(.text) refers to transceiverctrl.o(.bss) for .bss
    transceiverctrl.o(.text) refers to transceiverctrl.o(.constdata) for .constdata
    transceiverctrl.o(.text) refers to deviceinfo.o(.bss) for DevDynamicPara
    transceiverctrl.o(.text) refers to debug.o(.text) for debug_printf
    transceiverctrl.o(.text) refers to ledctrl.o(.text) for LEDInit
    transceiverctrl.o(.text) refers to stm32f10x_gpio.o(.text) for GPIO_SetBits
    transceiverctrl.o(.text) refers to transceiverctrl.o(.conststring) for .conststring
    selfcheck.o(.text) refers to ledctrl.o(.text) for LEDInit
    selfcheck.o(.text) refers to 24c02.o(.text) for EEPROM_EepromSelfCheckStructInit
    selfcheck.o(.text) refers to si446x.o(.text) for SI446X_Si446xSelfCheckStructInit
    selfcheck.o(.text) refers to rtc.o(.text) for RTC_RtcSelfCheckStructInit
    selfcheck.o(.text) refers to gpsctrl.o(.text) for GPS_GpsSelfCheckStructInit
    selfcheck.o(.text) refers to rflinkselfcheck.o(.text) for RFL_RfLinkSelfCheckStructInit
    selfcheck.o(.text) refers to printfa.o(i.__0sprintf) for __2sprintf
    selfcheck.o(.text) refers to strcat.o(.text) for strcat
    selfcheck.o(.text) refers to debug.o(.text) for UartResponseMsg
    selfcheck.o(.text) refers to selfcheck.o(.bss) for .bss
    selfcheck.o(.text) refers to selfcheck.o(.data) for .data
    selfcheck.o(.text) refers to gpsctrl.o(.bss) for GpsSelfCheckInst
    rflinkselfcheck.o(.text) refers to si446x.o(.text) for SI446X_ModuleInit
    rflinkselfcheck.o(.text) refers to systemtick.o(.text) for SetTimePeriodProcess
    rflinkselfcheck.o(.text) refers to msgmanager.o(.text) for SendMsg18Test
    rflinkselfcheck.o(.text) refers to aismsgmodule.o(.text) for AISMSG_ParseMsg
    rflinkselfcheck.o(.text) refers to debug.o(.text) for UartResponseMsg
    rflinkselfcheck.o(.text) refers to aismsgmodule.o(.bss) for AISMsg_18
    taskmanager.o(.text) refers to systemtick.o(.text) for SetTimePeriodProcess
    taskmanager.o(.text) refers to printfa.o(i.__0sprintf) for __2sprintf
    taskmanager.o(.text) refers to strcat.o(.text) for strcat
    taskmanager.o(.text) refers to parastorage.o(.text) for Para_CloseTimeSave
    taskmanager.o(.text) refers to tim.o(.text) for GetSlotNum
    taskmanager.o(.text) refers to debug.o(.text) for debug_printf
    taskmanager.o(.text) refers to aisinfo.o(.text) for AISINFO_InstRecStationQuantityUpdate
    taskmanager.o(.text) refers to taskmanager.o(.bss) for .bss
    taskmanager.o(.text) refers to gpsctrl.o(.bss) for GpsPara
    taskmanager.o(.text) refers to deviceinfo.o(.bss) for DevDynamicPara
    taskmanager.o(.text) refers to taskmanager.o(.constdata) for .constdata
    diskio.o(.text) refers to sdcard.o(.text) for SD_Init
    diskio.o(.text) refers to gpsctrl.o(.text) for IsGpsFix
    diskio.o(.text) refers to gpsctrl.o(.bss) for GpsPara
    ff.o(.text) refers to diskio.o(.text) for disk_write
    ff.o(.text) refers to ff.o(.data) for .data
    filectrl.o(.text) refers to printfa.o(i.__0sprintf) for __c89sprintf
    filectrl.o(.text) refers to flashctrl.o(.text) for FlashRead
    filectrl.o(.text) refers to atol.o(.text) for atol
    filectrl.o(.text) refers to ff.o(.text) for f_mount
    filectrl.o(.text) refers to strcat.o(.text) for strcat
    filectrl.o(.text) refers to strlen.o(.text) for strlen
    filectrl.o(.text) refers to usart.o(.text) for UartTxDataBuf
    filectrl.o(.text) refers to common.o(.text) for Delay_ms
    filectrl.o(.text) refers to wdg.o(.text) for Feed_Dog
    filectrl.o(.text) refers to memseta.o(.text) for __aeabi_memclr4
    filectrl.o(.text) refers to strncpy.o(.text) for strncpy
    filectrl.o(.text) refers to aisinfo.o(.bss) for AisStaticPara
    filectrl.o(.text) refers to filectrl.o(.bss) for .bss
    filectrl.o(.text) refers to filectrl.o(.data) for .data
    filectrl.o(.text) refers to linkmanagemententity.o(.text) for LME_ModuleInit
    filectrl.o(.text) refers to datalinkservice.o(.text) for DLS_InstPacketProbeStructInit
    filectrl.o(.text) refers to ubloxprotocol.o(.text) for UBX_ModuleInit
    filectrl.o(.text) refers to stm32f10x_exti.o(.text) for EXTI_Init
    filectrl.o(.text) refers to gps.o(.bss) for Uart2TxFIFO
    flashctrl.o(.text) refers to common.o(.text) for EEpromChkSum
    flashctrl.o(.text) refers to strtoul.o(.text) for strtoul
    flashctrl.o(.text) refers to stm32f10x_flash_1.o(.text) for FLASH_Unlock
    flashctrl.o(.text) refers to wdg.o(.text) for Feed_Dog
    flashctrl.o(.text) refers to printfa.o(i.__0sprintf) for __2sprintf
    flashctrl.o(.text) refers to flashctrl.o(.data) for .data
    encrypt.o(.text) refers to si446x.o(.text) for SI446X_PART_INFO
    encrypt.o(.text) refers to flashctrl.o(.text) for FLASH_ReadHalfWord
    encrypt.o(.text) refers to common.o(.text) for AIS_Cal_CRC16
    encrypt.o(.text) refers to stm32f10x_flash_1.o(.text) for FLASH_Unlock
    encrypt.o(.text) refers to wdg.o(.text) for Feed_Dog
    encrypt.o(.text) refers to strtoul.o(.text) for strtoul
    24c02.o(.text) refers to stm32f10x_gpio.o(.text) for GPIO_Init
    adc.o(.text) refers to stm32f10x_gpio.o(.text) for GPIO_Init
    adc.o(.text) refers to stm32f10x_adc.o(.text) for ADC_ResetCalibration
    adc.o(.text) refers to stm32f10x_dma.o(.text) for DMA_Init
    adc.o(.text) refers to adc.o(.data) for .data
    bkpregister.o(.text) refers to stm32f10x_pwr.o(.text) for PWR_BackupAccessCmd
    bkpregister.o(.text) refers to stm32f10x_bkp.o(.text) for BKP_WriteBackupRegister
    bkpregister.o(.text) refers to stm32f10x_rtc.o(.text) for RTC_WaitForSynchro
    bkpregister.o(.text) refers to bkpregister.o(.bss) for .bss
    bkpregister.o(.text) refers to bkpregister.o(.data) for .data
    dac.o(.text) refers to stm32f10x_dac.o(.text) for DAC_SetChannel2Data
    dac.o(.text) refers to stm32f10x_gpio.o(.text) for GPIO_Init
    gps.o(.text) refers to stm32f10x_usart.o(.text) for USART_GetFlagStatus
    gps.o(.text) refers to usart.o(.text) for UartRxProcess
    gps.o(.text) refers to ubloxprotocol.o(.text) for UBX_UartRxProcess
    gps.o(.text) refers to stm32f10x_exti.o(.text) for EXTI_GetITStatus
    gps.o(.text) refers to gpsctrl.o(.text) for IsGpsFix
    gps.o(.text) refers to stm32f10x_gpio.o(.text) for GPIO_Init
    gps.o(.text) refers to gps.o(.data) for .data
    gps.o(.text) refers to deviceinfo.o(.bss) for DevDynamicPara
    gps.o(.text) refers to gps.o(.bss) for .bss
    gps.o(.text) refers to gpsctrl.o(.bss) for GpsSelfCheckInst
    gps.o(.text) refers to tim.o(.data) for GpsTimCount
    gps.o(.text) refers to rtc.o(.data) for GpsRtcCount
    led.o(.text) refers to systemtick.o(.text) for GetLocalClockTickProcess
    led.o(.text) refers to stm32f10x_gpio.o(.text) for GPIO_ResetBits
    led.o(.text) refers to led.o(.data) for .data
    power.o(.text) refers to dac.o(.text) for SetDAC1Val
    power.o(.text) refers to stm32f10x_gpio.o(.text) for GPIO_ResetBits
    power.o(.text) refers to stm32f10x_dac.o(.text) for DAC_Init
    power.o(.text) refers to stm32f10x_exti.o(.text) for EXTI_GetITStatus
    power.o(.text) refers to power.o(.data) for .data
    rtc.o(.text) refers to adjust.o(.text) for IsRtcClockSourceLSE
    rtc.o(.text) refers to debug.o(.text) for usart_printf
    rtc.o(.text) refers to tim.o(.text) for TransPhaseAdjust
    rtc.o(.text) refers to stm32f10x_rtc.o(.text) for RTC_WaitForLastTask
    rtc.o(.text) refers to stm32f10x_exti.o(.text) for EXTI_ClearITPendingBit
    rtc.o(.text) refers to stm32f10x_rcc.o(.text) for RCC_APB1PeriphClockCmd
    rtc.o(.text) refers to stm32f10x_pwr.o(.text) for PWR_BackupAccessCmd
    rtc.o(.text) refers to stm32f10x_bkp.o(.text) for BKP_DeInit
    rtc.o(.text) refers to dadd.o(.text) for __aeabi_dadd
    rtc.o(.text) refers to dfltui.o(.text) for __aeabi_ui2d
    rtc.o(.text) refers to cdcmple.o(.text) for __aeabi_cdcmple
    rtc.o(.text) refers to sleepctrl.o(.text) for CalcuSleepSpan
    rtc.o(.text) refers to ddiv.o(.text) for __aeabi_ddiv
    rtc.o(.text) refers to dmul.o(.text) for __aeabi_dmul
    rtc.o(.text) refers to dfixi.o(.text) for __aeabi_d2iz
    rtc.o(.text) refers to rtc.o(.data) for .data
    rtc.o(.text) refers to powerup.o(.data) for ucStandbyWakeupFlg
    rtc.o(.text) refers to deviceinfo.o(.bss) for DevDynamicPara
    rtc.o(.text) refers to tim.o(.data) for TimAdjust1
    rtc.o(.text) refers to wdg.o(.data) for Is_Feed_Dog
    rtc.o(.text) refers to sleepctrl.o(.bss) for SleepCtrlPara
    rtc.o(.text) refers to rtc.o(.bss) for .bss
    rtc.o(.text) refers to bkpregister.o(.bss) for arrBKPDRData
    rtc.o(.text) refers to gpsctrl.o(.text) for IsGpsPowerupProtect
    rtc.o(.text) refers to dfixui.o(.text) for __aeabi_d2uiz
    rtc.o(.text) refers to sleepctrl.o(.data) for gslRtcToTimCnt_2
    rtc.o(.text) refers to adjust.o(.bss) for TimAdjustPara
    rxtx.o(.text) refers to stm32f10x_gpio.o(.text) for GPIO_ResetBits
    spi.o(.text) refers to stm32f10x_gpio.o(.text) for GPIO_Init
    spi.o(.text) refers to stm32f10x_spi.o(.text) for SPI_Init
    tim.o(.text) refers to debug.o(.text) for usart_printf
    tim.o(.text) refers to stm32f10x_tim.o(.text) for TIM_TimeBaseInit
    tim.o(.text) refers to gpsctrl.o(.text) for IsGpsPowerupProtect
    tim.o(.text) refers to tim.o(.data) for .data
    tim.o(.text) refers to deviceinfo.o(.bss) for DevDynamicPara
    tim.o(.text) refers to sleepctrl.o(.bss) for SleepCtrlPara
    tim.o(.text) refers to gpsctrl.o(.bss) for GpsSynCell
    tim.o(.text) refers to sleepctrl.o(.data) for gslTimToRtcIdleCnt_2
    tim.o(.text) refers to adc.o(.text) for ADC1Start
    tim.o(.text) refers to ptt_lnw.o(.text) for PTT_Timer_Service
    tim.o(.text) refers to gpiospi.o(.text) for GPIOSPI_InstClockCount
    tim.o(.text) refers to sleepctrl.o(.data) for gslTimToRtcCnt_2
    tim.o(.text) refers to wdg.o(.data) for Is_Feed_Dog
    tim.o(.text) refers to systemtick.o(.data) for LocalClockTick
    usart.o(.text) refers to stm32f10x_usart.o(.text) for USART_SendData
    usart.o(.text) refers to sleepctrl.o(.text) for SetUsartFlg
    usart.o(.text) refers to stm32f10x_gpio.o(.text) for GPIO_Init
    usart.o(.text) refers to gps.o(.text) for InitUsart2
    usart.o(.text) refers to usart.o(.data) for .data
    usart.o(.text) refers to usart.o(.bss) for .bss
    usart.o(.text) refers to gps.o(.bss) for Uart2TxFIFO
    usart.o(.text) refers to common.o(.text) for UartMsgCheckSum
    usart.o(.text) refers to uartmsg.o(.text) for UartMsgProcess
    usart.o(.text) refers to gpsctrl.o(.text) for GpsMsgProcess
    wdg.o(.text) refers to stm32f10x_iwdg.o(.text) for IWDG_WriteAccessCmd
    wdg.o(.text) refers to wdg.o(.data) for .data
    gpiospi.o(.text) refers to stm32f10x_gpio.o(.text) for GPIO_Init
    gpiospi.o(.text) refers to gpiospi.o(.bss) for .bss
    si446x.o(.text) refers to dfltui.o(.text) for __aeabi_ui2d
    si446x.o(.text) refers to dmul.o(.text) for __aeabi_dmul
    si446x.o(.text) refers to ddiv.o(.text) for __aeabi_ddiv
    si446x.o(.text) refers to dscalb.o(.text) for __ARM_scalbn
    si446x.o(.text) refers to dadd.o(.text) for __aeabi_dadd
    si446x.o(.text) refers to dfixui.o(.text) for __aeabi_d2uiz
    si446x.o(.text) refers to dflti.o(.text) for __aeabi_i2d
    si446x.o(.text) refers to dfixi.o(.text) for __aeabi_d2iz
    si446x.o(.text) refers to stm32f10x_gpio.o(.text) for GPIO_Init
    si446x.o(.text) refers to common.o(.text) for Delay_ms
    si446x.o(.text) refers to spi.o(.text) for GPIO_SPI2_ExchangeByte
    si446x.o(.text) refers to si446x.o(.data) for .data
    si446x.o(.text) refers to si446x.o(.bss) for .bss
    si446x.o(.text) refers to stm32f10x_exti.o(.text) for EXTI_Init
    si446x.o(.text) refers to transceiverctrl.o(.text) for TRCTRL_TxDataClockISR
    si446x.o(.text) refers to physicallayer.o(.text) for PHY_InstNRZIDecode
    si446x.o(.text) refers to datalinkservice.o(.text) for DLS_InstBitStreamPutBit
    si446x.o(.text) refers to deviceinfo.o(.bss) for DevDynamicPara
    si446x.o(.text) refers to ptt_lnw.o(.bss) for PTT_OBJ
    si446x.o(.text) refers to debug.o(.text) for debug_printf
    si446x.o(.text) refers to encrypt.o(.text) for ReadDeviceID
    sdcard.o(.text) refers to stm32f10x_sdio_1.o(.text) for SDIO_ClearFlag
    sdcard.o(.text) refers to sdcard.o(.data) for .data
    sdcard.o(.text) refers to sdcard.o(.bss) for .bss
    sdcard.o(.text) refers to stm32f10x_rcc.o(.text) for RCC_APB2PeriphClockCmd
    sdcard.o(.text) refers to stm32f10x_gpio.o(.text) for GPIO_Init
    sdcard.o(.text) refers to stm32f10x_dma.o(.text) for DMA_GetFlagStatus
    debug.o(.text) refers to strlen.o(.text) for strlen
    debug.o(.text) refers to usart.o(.text) for UartTxDataBuf
    debug.o(.text) refers to printfa.o(i.__0vsprintf) for __c89vsprintf
    debug.o(.text) refers to printfa.o(i.__0sprintf) for __2sprintf
    debug.o(.text) refers to common.o(.text) for UartMsgCheckSum
    debug.o(.text) refers to debug.o(.bss) for .bss
    debug.o(.text) refers to debug.o(.data) for .data
    stm32f10x_adc.o(.text) refers to stm32f10x_rcc.o(.text) for RCC_APB2PeriphResetCmd
    stm32f10x_bkp.o(.text) refers to stm32f10x_rcc.o(.text) for RCC_BackupResetCmd
    stm32f10x_can.o(.text) refers to stm32f10x_rcc.o(.text) for RCC_APB1PeriphResetCmd
    stm32f10x_cec.o(.text) refers to stm32f10x_rcc.o(.text) for RCC_APB1PeriphResetCmd
    stm32f10x_dac.o(.text) refers to stm32f10x_rcc.o(.text) for RCC_APB1PeriphResetCmd
    stm32f10x_gpio.o(.text) refers to stm32f10x_rcc.o(.text) for RCC_APB2PeriphResetCmd
    stm32f10x_i2c.o(.text) refers to stm32f10x_rcc.o(.text) for RCC_APB1PeriphResetCmd
    stm32f10x_pwr.o(.text) refers to stm32f10x_rcc.o(.text) for RCC_APB1PeriphResetCmd
    stm32f10x_rcc.o(.text) refers to stm32f10x_rcc.o(.data) for .data
    stm32f10x_spi.o(.text) refers to stm32f10x_rcc.o(.text) for RCC_APB2PeriphResetCmd
    stm32f10x_tim.o(.text) refers to stm32f10x_rcc.o(.text) for RCC_APB1PeriphResetCmd
    stm32f10x_usart.o(.text) refers to stm32f10x_rcc.o(.text) for RCC_APB2PeriphResetCmd
    stm32f10x_wwdg.o(.text) refers to stm32f10x_rcc.o(.text) for RCC_APB1PeriphResetCmd
    ptt_lnw.o(.text) refers to stm32f10x_gpio.o(.text) for GPIO_PinRemapConfig
    ptt_lnw.o(.text) refers to memseta.o(.text) for __aeabi_memclr4
    ptt_lnw.o(.text) refers to rxtxctrl.o(.text) for RxTxCtrl
    ptt_lnw.o(.text) refers to si446x.o(.text) for SI446X_RXSTTUS_Return
    ptt_lnw.o(.text) refers to ptt_lnw.o(.bss) for .bss
    asin.o(i.__softfp_asin) refers (Special) to iusefp.o(.text) for __I$use$fp
    asin.o(i.__softfp_asin) refers to asin.o(i.asin) for asin
    asin.o(i.asin) refers (Special) to iusefp.o(.text) for __I$use$fp
    asin.o(i.asin) refers to dunder.o(i.__mathlib_dbl_infnan) for __mathlib_dbl_infnan
    asin.o(i.asin) refers to dmul.o(.text) for __aeabi_dmul
    asin.o(i.asin) refers to dadd.o(.text) for __aeabi_dadd
    asin.o(i.asin) refers to errno.o(i.__set_errno) for __set_errno
    asin.o(i.asin) refers to dunder.o(i.__mathlib_dbl_invalid) for __mathlib_dbl_invalid
    asin.o(i.asin) refers to fpclassify.o(i.__ARM_fpclassify) for __ARM_fpclassify
    asin.o(i.asin) refers to dunder.o(i.__mathlib_dbl_underflow) for __mathlib_dbl_underflow
    asin.o(i.asin) refers to poly.o(i.__kernel_poly) for __kernel_poly
    asin.o(i.asin) refers to ddiv.o(.text) for __aeabi_ddiv
    asin.o(i.asin) refers to dscalb.o(.text) for __ARM_scalbn
    asin.o(i.asin) refers to sqrt.o(i.sqrt) for sqrt
    asin.o(i.asin) refers to asin.o(.constdata) for .constdata
    asin.o(.constdata) refers (Special) to iusefp.o(.text) for __I$use$fp
    asin_x.o(i.____softfp_asin$lsc) refers (Special) to iusefp.o(.text) for __I$use$fp
    asin_x.o(i.____softfp_asin$lsc) refers to asin_x.o(i.__asin$lsc) for __asin$lsc
    asin_x.o(i.__asin$lsc) refers (Special) to iusefp.o(.text) for __I$use$fp
    asin_x.o(i.__asin$lsc) refers to dunder.o(i.__mathlib_dbl_infnan) for __mathlib_dbl_infnan
    asin_x.o(i.__asin$lsc) refers to dmul.o(.text) for __aeabi_dmul
    asin_x.o(i.__asin$lsc) refers to dadd.o(.text) for __aeabi_dadd
    asin_x.o(i.__asin$lsc) refers to errno.o(i.__set_errno) for __set_errno
    asin_x.o(i.__asin$lsc) refers to poly.o(i.__kernel_poly) for __kernel_poly
    asin_x.o(i.__asin$lsc) refers to ddiv.o(.text) for __aeabi_ddiv
    asin_x.o(i.__asin$lsc) refers to dscalb.o(.text) for __ARM_scalbn
    asin_x.o(i.__asin$lsc) refers to sqrt.o(i.sqrt) for sqrt
    asin_x.o(i.__asin$lsc) refers to asin_x.o(.constdata) for .constdata
    asin_x.o(.constdata) refers (Special) to iusefp.o(.text) for __I$use$fp
    atof.o(i.__softfp_atof) refers (Special) to iusefp.o(.text) for __I$use$fp
    atof.o(i.__softfp_atof) refers to errno.o(i.__read_errno) for __read_errno
    atof.o(i.__softfp_atof) refers to strtod.o(.text) for __strtod_int
    atof.o(i.__softfp_atof) refers to errno.o(i.__set_errno) for __set_errno
    atof.o(i.atof) refers (Special) to iusefp.o(.text) for __I$use$fp
    atof.o(i.atof) refers to errno.o(i.__read_errno) for __read_errno
    atof.o(i.atof) refers to strtod.o(.text) for __strtod_int
    atof.o(i.atof) refers to errno.o(i.__set_errno) for __set_errno
    cos.o(i.__softfp_cos) refers (Special) to iusefp.o(.text) for __I$use$fp
    cos.o(i.__softfp_cos) refers to cos.o(i.cos) for cos
    cos.o(i.cos) refers (Special) to iusefp.o(.text) for __I$use$fp
    cos.o(i.cos) refers to errno.o(i.__set_errno) for __set_errno
    cos.o(i.cos) refers to dunder.o(i.__mathlib_dbl_invalid) for __mathlib_dbl_invalid
    cos.o(i.cos) refers to dunder.o(i.__mathlib_dbl_infnan) for __mathlib_dbl_infnan
    cos.o(i.cos) refers to rred.o(i.__ieee754_rem_pio2) for __ieee754_rem_pio2
    cos.o(i.cos) refers to sin_i.o(i.__kernel_sin) for __kernel_sin
    cos.o(i.cos) refers to cos_i.o(i.__kernel_cos) for __kernel_cos
    cos_x.o(i.____softfp_cos$lsc) refers (Special) to iusefp.o(.text) for __I$use$fp
    cos_x.o(i.____softfp_cos$lsc) refers to cos_x.o(i.__cos$lsc) for __cos$lsc
    cos_x.o(i.__cos$lsc) refers (Special) to iusefp.o(.text) for __I$use$fp
    cos_x.o(i.__cos$lsc) refers to errno.o(i.__set_errno) for __set_errno
    cos_x.o(i.__cos$lsc) refers to dunder.o(i.__mathlib_dbl_infnan) for __mathlib_dbl_infnan
    cos_x.o(i.__cos$lsc) refers to rred.o(i.__ieee754_rem_pio2) for __ieee754_rem_pio2
    cos_x.o(i.__cos$lsc) refers to sin_i.o(i.__kernel_sin) for __kernel_sin
    cos_x.o(i.__cos$lsc) refers to cos_i.o(i.__kernel_cos) for __kernel_cos
    pow.o(i.__softfp_pow) refers (Special) to iusefp.o(.text) for __I$use$fp
    pow.o(i.__softfp_pow) refers to pow.o(i.pow) for pow
    pow.o(i.pow) refers (Special) to iusefp.o(.text) for __I$use$fp
    pow.o(i.pow) refers to dunder.o(i.__mathlib_dbl_infnan2) for __mathlib_dbl_infnan2
    pow.o(i.pow) refers to errno.o(i.__set_errno) for __set_errno
    pow.o(i.pow) refers to dunder.o(i.__mathlib_dbl_divzero) for __mathlib_dbl_divzero
    pow.o(i.pow) refers to ddiv.o(.text) for __aeabi_ddiv
    pow.o(i.pow) refers to sqrt.o(i.sqrt) for sqrt
    pow.o(i.pow) refers to dmul.o(.text) for __aeabi_dmul
    pow.o(i.pow) refers to dflti.o(.text) for __aeabi_i2d
    pow.o(i.pow) refers to dunder.o(i.__mathlib_dbl_invalid) for __mathlib_dbl_invalid
    pow.o(i.pow) refers to dunder.o(i.__mathlib_dbl_overflow) for __mathlib_dbl_overflow
    pow.o(i.pow) refers to dunder.o(i.__mathlib_dbl_underflow) for __mathlib_dbl_underflow
    pow.o(i.pow) refers to dadd.o(.text) for __aeabi_dsub
    pow.o(i.pow) refers to dscalb.o(.text) for __ARM_scalbn
    pow.o(i.pow) refers to qnan.o(.constdata) for __mathlib_zero
    pow.o(i.pow) refers to poly.o(i.__kernel_poly) for __kernel_poly
    pow.o(i.pow) refers to cdrcmple.o(.text) for __aeabi_cdrcmple
    pow.o(i.pow) refers to pow.o(.constdata) for .constdata
    pow.o(i.pow) refers to fpclassify.o(i.__ARM_fpclassify) for __ARM_fpclassify
    pow.o(.constdata) refers (Special) to iusefp.o(.text) for __I$use$fp
    pow_x.o(i.____softfp_pow$lsc) refers (Special) to iusefp.o(.text) for __I$use$fp
    pow_x.o(i.____softfp_pow$lsc) refers to pow_x.o(i.__pow$lsc) for __pow$lsc
    pow_x.o(i.__pow$lsc) refers (Special) to iusefp.o(.text) for __I$use$fp
    pow_x.o(i.__pow$lsc) refers to dunder.o(i.__mathlib_dbl_infnan2) for __mathlib_dbl_infnan2
    pow_x.o(i.__pow$lsc) refers to errno.o(i.__set_errno) for __set_errno
    pow_x.o(i.__pow$lsc) refers to ddiv.o(.text) for __aeabi_ddiv
    pow_x.o(i.__pow$lsc) refers to sqrt.o(i.sqrt) for sqrt
    pow_x.o(i.__pow$lsc) refers to dmul.o(.text) for __aeabi_dmul
    pow_x.o(i.__pow$lsc) refers to dflti.o(.text) for __aeabi_i2d
    pow_x.o(i.__pow$lsc) refers to dadd.o(.text) for __aeabi_dsub
    pow_x.o(i.__pow$lsc) refers to dscalb.o(.text) for __ARM_scalbn
    pow_x.o(i.__pow$lsc) refers to qnan.o(.constdata) for __mathlib_zero
    pow_x.o(i.__pow$lsc) refers to poly.o(i.__kernel_poly) for __kernel_poly
    pow_x.o(i.__pow$lsc) refers to cdrcmple.o(.text) for __aeabi_cdrcmple
    pow_x.o(i.__pow$lsc) refers to pow_x.o(.constdata) for .constdata
    pow_x.o(.constdata) refers (Special) to iusefp.o(.text) for __I$use$fp
    sin.o(i.__softfp_sin) refers (Special) to iusefp.o(.text) for __I$use$fp
    sin.o(i.__softfp_sin) refers to sin.o(i.sin) for sin
    sin.o(i.sin) refers (Special) to iusefp.o(.text) for __I$use$fp
    sin.o(i.sin) refers to errno.o(i.__set_errno) for __set_errno
    sin.o(i.sin) refers to dunder.o(i.__mathlib_dbl_invalid) for __mathlib_dbl_invalid
    sin.o(i.sin) refers to dunder.o(i.__mathlib_dbl_infnan) for __mathlib_dbl_infnan
    sin.o(i.sin) refers to rred.o(i.__ieee754_rem_pio2) for __ieee754_rem_pio2
    sin.o(i.sin) refers to cos_i.o(i.__kernel_cos) for __kernel_cos
    sin.o(i.sin) refers to sin_i.o(i.__kernel_sin) for __kernel_sin
    sin_x.o(i.____softfp_sin$lsc) refers (Special) to iusefp.o(.text) for __I$use$fp
    sin_x.o(i.____softfp_sin$lsc) refers to sin_x.o(i.__sin$lsc) for __sin$lsc
    sin_x.o(i.__sin$lsc) refers (Special) to iusefp.o(.text) for __I$use$fp
    sin_x.o(i.__sin$lsc) refers to errno.o(i.__set_errno) for __set_errno
    sin_x.o(i.__sin$lsc) refers to dunder.o(i.__mathlib_dbl_infnan) for __mathlib_dbl_infnan
    sin_x.o(i.__sin$lsc) refers to rred.o(i.__ieee754_rem_pio2) for __ieee754_rem_pio2
    sin_x.o(i.__sin$lsc) refers to cos_i.o(i.__kernel_cos) for __kernel_cos
    sin_x.o(i.__sin$lsc) refers to sin_i.o(i.__kernel_sin) for __kernel_sin
    sqrt.o(i.__softfp_sqrt) refers (Special) to iusefp.o(.text) for __I$use$fp
    sqrt.o(i.__softfp_sqrt) refers to dsqrt.o(.text) for _dsqrt
    sqrt.o(i.__softfp_sqrt) refers to errno.o(i.__set_errno) for __set_errno
    sqrt.o(i.sqrt) refers (Special) to iusefp.o(.text) for __I$use$fp
    sqrt.o(i.sqrt) refers to dsqrt.o(.text) for _dsqrt
    sqrt.o(i.sqrt) refers to errno.o(i.__set_errno) for __set_errno
    sqrt_x.o(i.____softfp_sqrt$lsc) refers (Special) to iusefp.o(.text) for __I$use$fp
    sqrt_x.o(i.____softfp_sqrt$lsc) refers to cdcmple.o(.text) for __aeabi_cdcmple
    sqrt_x.o(i.____softfp_sqrt$lsc) refers to errno.o(i.__set_errno) for __set_errno
    sqrt_x.o(i.____softfp_sqrt$lsc) refers to dsqrt.o(.text) for _dsqrt
    sqrt_x.o(i.__sqrt$lsc) refers (Special) to iusefp.o(.text) for __I$use$fp
    sqrt_x.o(i.__sqrt$lsc) refers to cdcmple.o(.text) for __aeabi_cdcmple
    sqrt_x.o(i.__sqrt$lsc) refers to errno.o(i.__set_errno) for __set_errno
    sqrt_x.o(i.__sqrt$lsc) refers to dsqrt.o(.text) for _dsqrt
    strtod.o(i.__softfp_strtod) refers (Special) to iusefp.o(.text) for __I$use$fp
    strtod.o(i.__softfp_strtod) refers to strtod.o(.text) for __strtod_int
    strtod.o(i.strtod) refers (Special) to iusefp.o(.text) for __I$use$fp
    strtod.o(i.strtod) refers to strtod.o(.text) for __strtod_int
    entry.o(.ARM.Collect$$$$00000000) refers (Special) to entry10a.o(.ARM.Collect$$$$0000000D) for __rt_final_cpp
    entry.o(.ARM.Collect$$$$00000000) refers (Special) to entry11a.o(.ARM.Collect$$$$0000000F) for __rt_final_exit
    entry.o(.ARM.Collect$$$$00000000) refers (Special) to entry7b.o(.ARM.Collect$$$$00000008) for _main_clock
    entry.o(.ARM.Collect$$$$00000000) refers (Special) to entry8b.o(.ARM.Collect$$$$0000000A) for _main_cpp_init
    entry.o(.ARM.Collect$$$$00000000) refers (Special) to entry9a.o(.ARM.Collect$$$$0000000B) for _main_init
    entry.o(.ARM.Collect$$$$00000000) refers (Special) to entry5.o(.ARM.Collect$$$$00000004) for _main_scatterload
    entry.o(.ARM.Collect$$$$00000000) refers (Special) to entry2.o(.ARM.Collect$$$$00000001) for _main_stk
    rand.o(.text) refers to rand.o(.data) for .data
    printfb.o(i.__0fprintf$bare) refers to printfb.o(i._printf_core) for _printf_core
    printfb.o(i.__0fprintf$bare) refers to fputc.o(i.fputc) for fputc
    printfb.o(i.__0printf$bare) refers to printfb.o(i._printf_core) for _printf_core
    printfb.o(i.__0printf$bare) refers to fputc.o(i.fputc) for fputc
    printfb.o(i.__0printf$bare) refers to stdout.o(.data) for __stdout
    printfb.o(i.__0snprintf$bare) refers to printfb.o(i._printf_core) for _printf_core
    printfb.o(i.__0snprintf$bare) refers to printfb.o(i._snputc) for _snputc
    printfb.o(i.__0sprintf$bare) refers to printfb.o(i._printf_core) for _printf_core
    printfb.o(i.__0sprintf$bare) refers to printfb.o(i._sputc) for _sputc
    printfb.o(i.__0vfprintf$bare) refers to printfb.o(i._printf_core) for _printf_core
    printfb.o(i.__0vfprintf$bare) refers to fputc.o(i.fputc) for fputc
    printfb.o(i.__0vprintf$bare) refers to printfb.o(i._printf_core) for _printf_core
    printfb.o(i.__0vprintf$bare) refers to fputc.o(i.fputc) for fputc
    printfb.o(i.__0vprintf$bare) refers to stdout.o(.data) for __stdout
    printfb.o(i.__0vsnprintf$bare) refers to printfb.o(i._printf_core) for _printf_core
    printfb.o(i.__0vsnprintf$bare) refers to printfb.o(i._snputc) for _snputc
    printfb.o(i.__0vsprintf$bare) refers to printfb.o(i._printf_core) for _printf_core
    printfb.o(i.__0vsprintf$bare) refers to printfb.o(i._sputc) for _sputc
    printf0.o(i.__0fprintf$0) refers to printf0.o(i._printf_core) for _printf_core
    printf0.o(i.__0fprintf$0) refers to fputc.o(i.fputc) for fputc
    printf0.o(i.__0printf$0) refers to printf0.o(i._printf_core) for _printf_core
    printf0.o(i.__0printf$0) refers to fputc.o(i.fputc) for fputc
    printf0.o(i.__0printf$0) refers to stdout.o(.data) for __stdout
    printf0.o(i.__0snprintf$0) refers to printf0.o(i._printf_core) for _printf_core
    printf0.o(i.__0snprintf$0) refers to printf0.o(i._snputc) for _snputc
    printf0.o(i.__0sprintf$0) refers to printf0.o(i._printf_core) for _printf_core
    printf0.o(i.__0sprintf$0) refers to printf0.o(i._sputc) for _sputc
    printf0.o(i.__0vfprintf$0) refers to printf0.o(i._printf_core) for _printf_core
    printf0.o(i.__0vfprintf$0) refers to fputc.o(i.fputc) for fputc
    printf0.o(i.__0vprintf$0) refers to printf0.o(i._printf_core) for _printf_core
    printf0.o(i.__0vprintf$0) refers to fputc.o(i.fputc) for fputc
    printf0.o(i.__0vprintf$0) refers to stdout.o(.data) for __stdout
    printf0.o(i.__0vsnprintf$0) refers to printf0.o(i._printf_core) for _printf_core
    printf0.o(i.__0vsnprintf$0) refers to printf0.o(i._snputc) for _snputc
    printf0.o(i.__0vsprintf$0) refers to printf0.o(i._printf_core) for _printf_core
    printf0.o(i.__0vsprintf$0) refers to printf0.o(i._sputc) for _sputc
    printf1.o(i.__0fprintf$1) refers to printf1.o(i._printf_core) for _printf_core
    printf1.o(i.__0fprintf$1) refers to fputc.o(i.fputc) for fputc
    printf1.o(i.__0printf$1) refers to printf1.o(i._printf_core) for _printf_core
    printf1.o(i.__0printf$1) refers to fputc.o(i.fputc) for fputc
    printf1.o(i.__0printf$1) refers to stdout.o(.data) for __stdout
    printf1.o(i.__0snprintf$1) refers to printf1.o(i._printf_core) for _printf_core
    printf1.o(i.__0snprintf$1) refers to printf1.o(i._snputc) for _snputc
    printf1.o(i.__0sprintf$1) refers to printf1.o(i._printf_core) for _printf_core
    printf1.o(i.__0sprintf$1) refers to printf1.o(i._sputc) for _sputc
    printf1.o(i.__0vfprintf$1) refers to printf1.o(i._printf_core) for _printf_core
    printf1.o(i.__0vfprintf$1) refers to fputc.o(i.fputc) for fputc
    printf1.o(i.__0vprintf$1) refers to printf1.o(i._printf_core) for _printf_core
    printf1.o(i.__0vprintf$1) refers to fputc.o(i.fputc) for fputc
    printf1.o(i.__0vprintf$1) refers to stdout.o(.data) for __stdout
    printf1.o(i.__0vsnprintf$1) refers to printf1.o(i._printf_core) for _printf_core
    printf1.o(i.__0vsnprintf$1) refers to printf1.o(i._snputc) for _snputc
    printf1.o(i.__0vsprintf$1) refers to printf1.o(i._printf_core) for _printf_core
    printf1.o(i.__0vsprintf$1) refers to printf1.o(i._sputc) for _sputc
    printf1.o(i._printf_core) refers to uidiv.o(.text) for __aeabi_uidivmod
    printf2.o(i.__0fprintf$2) refers to printf2.o(i._printf_core) for _printf_core
    printf2.o(i.__0fprintf$2) refers to fputc.o(i.fputc) for fputc
    printf2.o(i.__0printf$2) refers to printf2.o(i._printf_core) for _printf_core
    printf2.o(i.__0printf$2) refers to fputc.o(i.fputc) for fputc
    printf2.o(i.__0printf$2) refers to stdout.o(.data) for __stdout
    printf2.o(i.__0snprintf$2) refers to printf2.o(i._printf_core) for _printf_core
    printf2.o(i.__0snprintf$2) refers to printf2.o(i._snputc) for _snputc
    printf2.o(i.__0sprintf$2) refers to printf2.o(i._printf_core) for _printf_core
    printf2.o(i.__0sprintf$2) refers to printf2.o(i._sputc) for _sputc
    printf2.o(i.__0vfprintf$2) refers to printf2.o(i._printf_core) for _printf_core
    printf2.o(i.__0vfprintf$2) refers to fputc.o(i.fputc) for fputc
    printf2.o(i.__0vprintf$2) refers to printf2.o(i._printf_core) for _printf_core
    printf2.o(i.__0vprintf$2) refers to fputc.o(i.fputc) for fputc
    printf2.o(i.__0vprintf$2) refers to stdout.o(.data) for __stdout
    printf2.o(i.__0vsnprintf$2) refers to printf2.o(i._printf_core) for _printf_core
    printf2.o(i.__0vsnprintf$2) refers to printf2.o(i._snputc) for _snputc
    printf2.o(i.__0vsprintf$2) refers to printf2.o(i._printf_core) for _printf_core
    printf2.o(i.__0vsprintf$2) refers to printf2.o(i._sputc) for _sputc
    printf3.o(i.__0fprintf$3) refers to printf3.o(i._printf_core) for _printf_core
    printf3.o(i.__0fprintf$3) refers to fputc.o(i.fputc) for fputc
    printf3.o(i.__0printf$3) refers to printf3.o(i._printf_core) for _printf_core
    printf3.o(i.__0printf$3) refers to fputc.o(i.fputc) for fputc
    printf3.o(i.__0printf$3) refers to stdout.o(.data) for __stdout
    printf3.o(i.__0snprintf$3) refers to printf3.o(i._printf_core) for _printf_core
    printf3.o(i.__0snprintf$3) refers to printf3.o(i._snputc) for _snputc
    printf3.o(i.__0sprintf$3) refers to printf3.o(i._printf_core) for _printf_core
    printf3.o(i.__0sprintf$3) refers to printf3.o(i._sputc) for _sputc
    printf3.o(i.__0vfprintf$3) refers to printf3.o(i._printf_core) for _printf_core
    printf3.o(i.__0vfprintf$3) refers to fputc.o(i.fputc) for fputc
    printf3.o(i.__0vprintf$3) refers to printf3.o(i._printf_core) for _printf_core
    printf3.o(i.__0vprintf$3) refers to fputc.o(i.fputc) for fputc
    printf3.o(i.__0vprintf$3) refers to stdout.o(.data) for __stdout
    printf3.o(i.__0vsnprintf$3) refers to printf3.o(i._printf_core) for _printf_core
    printf3.o(i.__0vsnprintf$3) refers to printf3.o(i._snputc) for _snputc
    printf3.o(i.__0vsprintf$3) refers to printf3.o(i._printf_core) for _printf_core
    printf3.o(i.__0vsprintf$3) refers to printf3.o(i._sputc) for _sputc
    printf3.o(i._printf_core) refers to uidiv.o(.text) for __aeabi_uidivmod
    printf4.o(i.__0fprintf$4) refers to printf4.o(i._printf_core) for _printf_core
    printf4.o(i.__0fprintf$4) refers to fputc.o(i.fputc) for fputc
    printf4.o(i.__0printf$4) refers to printf4.o(i._printf_core) for _printf_core
    printf4.o(i.__0printf$4) refers to fputc.o(i.fputc) for fputc
    printf4.o(i.__0printf$4) refers to stdout.o(.data) for __stdout
    printf4.o(i.__0snprintf$4) refers to printf4.o(i._printf_core) for _printf_core
    printf4.o(i.__0snprintf$4) refers to printf4.o(i._snputc) for _snputc
    printf4.o(i.__0sprintf$4) refers to printf4.o(i._printf_core) for _printf_core
    printf4.o(i.__0sprintf$4) refers to printf4.o(i._sputc) for _sputc
    printf4.o(i.__0vfprintf$4) refers to printf4.o(i._printf_core) for _printf_core
    printf4.o(i.__0vfprintf$4) refers to fputc.o(i.fputc) for fputc
    printf4.o(i.__0vprintf$4) refers to printf4.o(i._printf_core) for _printf_core
    printf4.o(i.__0vprintf$4) refers to fputc.o(i.fputc) for fputc
    printf4.o(i.__0vprintf$4) refers to stdout.o(.data) for __stdout
    printf4.o(i.__0vsnprintf$4) refers to printf4.o(i._printf_core) for _printf_core
    printf4.o(i.__0vsnprintf$4) refers to printf4.o(i._snputc) for _snputc
    printf4.o(i.__0vsprintf$4) refers to printf4.o(i._printf_core) for _printf_core
    printf4.o(i.__0vsprintf$4) refers to printf4.o(i._sputc) for _sputc
    printf4.o(i._printf_core) refers to uldiv.o(.text) for __aeabi_uldivmod
    printf5.o(i.__0fprintf$5) refers to printf5.o(i._printf_core) for _printf_core
    printf5.o(i.__0fprintf$5) refers to fputc.o(i.fputc) for fputc
    printf5.o(i.__0printf$5) refers to printf5.o(i._printf_core) for _printf_core
    printf5.o(i.__0printf$5) refers to fputc.o(i.fputc) for fputc
    printf5.o(i.__0printf$5) refers to stdout.o(.data) for __stdout
    printf5.o(i.__0snprintf$5) refers to printf5.o(i._printf_core) for _printf_core
    printf5.o(i.__0snprintf$5) refers to printf5.o(i._snputc) for _snputc
    printf5.o(i.__0sprintf$5) refers to printf5.o(i._printf_core) for _printf_core
    printf5.o(i.__0sprintf$5) refers to printf5.o(i._sputc) for _sputc
    printf5.o(i.__0vfprintf$5) refers to printf5.o(i._printf_core) for _printf_core
    printf5.o(i.__0vfprintf$5) refers to fputc.o(i.fputc) for fputc
    printf5.o(i.__0vprintf$5) refers to printf5.o(i._printf_core) for _printf_core
    printf5.o(i.__0vprintf$5) refers to fputc.o(i.fputc) for fputc
    printf5.o(i.__0vprintf$5) refers to stdout.o(.data) for __stdout
    printf5.o(i.__0vsnprintf$5) refers to printf5.o(i._printf_core) for _printf_core
    printf5.o(i.__0vsnprintf$5) refers to printf5.o(i._snputc) for _snputc
    printf5.o(i.__0vsprintf$5) refers to printf5.o(i._printf_core) for _printf_core
    printf5.o(i.__0vsprintf$5) refers to printf5.o(i._sputc) for _sputc
    printf5.o(i._printf_core) refers to uldiv.o(.text) for __aeabi_uldivmod
    printf6.o(i.__0fprintf$6) refers to printf6.o(i._printf_core) for _printf_core
    printf6.o(i.__0fprintf$6) refers to fputc.o(i.fputc) for fputc
    printf6.o(i.__0printf$6) refers to printf6.o(i._printf_core) for _printf_core
    printf6.o(i.__0printf$6) refers to fputc.o(i.fputc) for fputc
    printf6.o(i.__0printf$6) refers to stdout.o(.data) for __stdout
    printf6.o(i.__0snprintf$6) refers to printf6.o(i._printf_core) for _printf_core
    printf6.o(i.__0snprintf$6) refers to printf6.o(i._snputc) for _snputc
    printf6.o(i.__0sprintf$6) refers to printf6.o(i._printf_core) for _printf_core
    printf6.o(i.__0sprintf$6) refers to printf6.o(i._sputc) for _sputc
    printf6.o(i.__0vfprintf$6) refers to printf6.o(i._printf_core) for _printf_core
    printf6.o(i.__0vfprintf$6) refers to fputc.o(i.fputc) for fputc
    printf6.o(i.__0vprintf$6) refers to printf6.o(i._printf_core) for _printf_core
    printf6.o(i.__0vprintf$6) refers to fputc.o(i.fputc) for fputc
    printf6.o(i.__0vprintf$6) refers to stdout.o(.data) for __stdout
    printf6.o(i.__0vsnprintf$6) refers to printf6.o(i._printf_core) for _printf_core
    printf6.o(i.__0vsnprintf$6) refers to printf6.o(i._snputc) for _snputc
    printf6.o(i.__0vsprintf$6) refers to printf6.o(i._printf_core) for _printf_core
    printf6.o(i.__0vsprintf$6) refers to printf6.o(i._sputc) for _sputc
    printf6.o(i._printf_core) refers to printf6.o(i._printf_pre_padding) for _printf_pre_padding
    printf6.o(i._printf_core) refers to uidiv.o(.text) for __aeabi_uidivmod
    printf6.o(i._printf_core) refers to printf6.o(i._printf_post_padding) for _printf_post_padding
    printf7.o(i.__0fprintf$7) refers to printf7.o(i._printf_core) for _printf_core
    printf7.o(i.__0fprintf$7) refers to fputc.o(i.fputc) for fputc
    printf7.o(i.__0printf$7) refers to printf7.o(i._printf_core) for _printf_core
    printf7.o(i.__0printf$7) refers to fputc.o(i.fputc) for fputc
    printf7.o(i.__0printf$7) refers to stdout.o(.data) for __stdout
    printf7.o(i.__0snprintf$7) refers to printf7.o(i._printf_core) for _printf_core
    printf7.o(i.__0snprintf$7) refers to printf7.o(i._snputc) for _snputc
    printf7.o(i.__0sprintf$7) refers to printf7.o(i._printf_core) for _printf_core
    printf7.o(i.__0sprintf$7) refers to printf7.o(i._sputc) for _sputc
    printf7.o(i.__0vfprintf$7) refers to printf7.o(i._printf_core) for _printf_core
    printf7.o(i.__0vfprintf$7) refers to fputc.o(i.fputc) for fputc
    printf7.o(i.__0vprintf$7) refers to printf7.o(i._printf_core) for _printf_core
    printf7.o(i.__0vprintf$7) refers to fputc.o(i.fputc) for fputc
    printf7.o(i.__0vprintf$7) refers to stdout.o(.data) for __stdout
    printf7.o(i.__0vsnprintf$7) refers to printf7.o(i._printf_core) for _printf_core
    printf7.o(i.__0vsnprintf$7) refers to printf7.o(i._snputc) for _snputc
    printf7.o(i.__0vsprintf$7) refers to printf7.o(i._printf_core) for _printf_core
    printf7.o(i.__0vsprintf$7) refers to printf7.o(i._sputc) for _sputc
    printf7.o(i._printf_core) refers to printf7.o(i._printf_pre_padding) for _printf_pre_padding
    printf7.o(i._printf_core) refers to uldiv.o(.text) for __aeabi_uldivmod
    printf7.o(i._printf_core) refers to printf7.o(i._printf_post_padding) for _printf_post_padding
    printf8.o(i.__0fprintf$8) refers to printf8.o(i._printf_core) for _printf_core
    printf8.o(i.__0fprintf$8) refers to fputc.o(i.fputc) for fputc
    printf8.o(i.__0printf$8) refers to printf8.o(i._printf_core) for _printf_core
    printf8.o(i.__0printf$8) refers to fputc.o(i.fputc) for fputc
    printf8.o(i.__0printf$8) refers to stdout.o(.data) for __stdout
    printf8.o(i.__0snprintf$8) refers to printf8.o(i._printf_core) for _printf_core
    printf8.o(i.__0snprintf$8) refers to printf8.o(i._snputc) for _snputc
    printf8.o(i.__0sprintf$8) refers to printf8.o(i._printf_core) for _printf_core
    printf8.o(i.__0sprintf$8) refers to printf8.o(i._sputc) for _sputc
    printf8.o(i.__0vfprintf$8) refers to printf8.o(i._printf_core) for _printf_core
    printf8.o(i.__0vfprintf$8) refers to fputc.o(i.fputc) for fputc
    printf8.o(i.__0vprintf$8) refers to printf8.o(i._printf_core) for _printf_core
    printf8.o(i.__0vprintf$8) refers to fputc.o(i.fputc) for fputc
    printf8.o(i.__0vprintf$8) refers to stdout.o(.data) for __stdout
    printf8.o(i.__0vsnprintf$8) refers to printf8.o(i._printf_core) for _printf_core
    printf8.o(i.__0vsnprintf$8) refers to printf8.o(i._snputc) for _snputc
    printf8.o(i.__0vsprintf$8) refers to printf8.o(i._printf_core) for _printf_core
    printf8.o(i.__0vsprintf$8) refers to printf8.o(i._sputc) for _sputc
    printf8.o(i._printf_core) refers to printf8.o(i._printf_pre_padding) for _printf_pre_padding
    printf8.o(i._printf_core) refers to uldiv.o(.text) for __aeabi_uldivmod
    printf8.o(i._printf_core) refers to printf8.o(i._printf_post_padding) for _printf_post_padding
    printfa.o(i.__0fprintf) refers (Special) to iusefp.o(.text) for __I$use$fp
    printfa.o(i.__0fprintf) refers to printfa.o(i._printf_core) for _printf_core
    printfa.o(i.__0fprintf) refers to fputc.o(i.fputc) for fputc
    printfa.o(i.__0printf) refers (Special) to iusefp.o(.text) for __I$use$fp
    printfa.o(i.__0printf) refers to printfa.o(i._printf_core) for _printf_core
    printfa.o(i.__0printf) refers to fputc.o(i.fputc) for fputc
    printfa.o(i.__0printf) refers to stdout.o(.data) for __stdout
    printfa.o(i.__0snprintf) refers (Special) to iusefp.o(.text) for __I$use$fp
    printfa.o(i.__0snprintf) refers to printfa.o(i._printf_core) for _printf_core
    printfa.o(i.__0snprintf) refers to printfa.o(i._snputc) for _snputc
    printfa.o(i.__0sprintf) refers (Special) to iusefp.o(.text) for __I$use$fp
    printfa.o(i.__0sprintf) refers to printfa.o(i._printf_core) for _printf_core
    printfa.o(i.__0sprintf) refers to printfa.o(i._sputc) for _sputc
    printfa.o(i.__0vfprintf) refers (Special) to iusefp.o(.text) for __I$use$fp
    printfa.o(i.__0vfprintf) refers to printfa.o(i._printf_core) for _printf_core
    printfa.o(i.__0vfprintf) refers to fputc.o(i.fputc) for fputc
    printfa.o(i.__0vprintf) refers (Special) to iusefp.o(.text) for __I$use$fp
    printfa.o(i.__0vprintf) refers to printfa.o(i._printf_core) for _printf_core
    printfa.o(i.__0vprintf) refers to fputc.o(i.fputc) for fputc
    printfa.o(i.__0vprintf) refers to stdout.o(.data) for __stdout
    printfa.o(i.__0vsnprintf) refers (Special) to iusefp.o(.text) for __I$use$fp
    printfa.o(i.__0vsnprintf) refers to printfa.o(i._printf_core) for _printf_core
    printfa.o(i.__0vsnprintf) refers to printfa.o(i._snputc) for _snputc
    printfa.o(i.__0vsprintf) refers (Special) to iusefp.o(.text) for __I$use$fp
    printfa.o(i.__0vsprintf) refers to printfa.o(i._printf_core) for _printf_core
    printfa.o(i.__0vsprintf) refers to printfa.o(i._sputc) for _sputc
    printfa.o(i._fp_digits) refers (Special) to iusefp.o(.text) for __I$use$fp
    printfa.o(i._fp_digits) refers to dmul.o(.text) for __aeabi_dmul
    printfa.o(i._fp_digits) refers to ddiv.o(.text) for __aeabi_ddiv
    printfa.o(i._fp_digits) refers to cdrcmple.o(.text) for __aeabi_cdrcmple
    printfa.o(i._fp_digits) refers to dadd.o(.text) for __aeabi_dadd
    printfa.o(i._fp_digits) refers to dfixul.o(.text) for __aeabi_d2ulz
    printfa.o(i._fp_digits) refers to uldiv.o(.text) for __aeabi_uldivmod
    printfa.o(i._printf_core) refers (Special) to iusefp.o(.text) for __I$use$fp
    printfa.o(i._printf_core) refers to printfa.o(i._printf_pre_padding) for _printf_pre_padding
    printfa.o(i._printf_core) refers to uldiv.o(.text) for __aeabi_uldivmod
    printfa.o(i._printf_core) refers to printfa.o(i._printf_post_padding) for _printf_post_padding
    printfa.o(i._printf_core) refers to printfa.o(i._fp_digits) for _fp_digits
    printfa.o(i._printf_core) refers to uidiv.o(.text) for __aeabi_uidivmod
    printfa.o(i._printf_post_padding) refers (Special) to iusefp.o(.text) for __I$use$fp
    printfa.o(i._printf_pre_padding) refers (Special) to iusefp.o(.text) for __I$use$fp
    printfa.o(i._snputc) refers (Special) to iusefp.o(.text) for __I$use$fp
    printfa.o(i._sputc) refers (Special) to iusefp.o(.text) for __I$use$fp
    malloc.o(i.free) refers to mvars.o(.data) for __microlib_freelist
    malloc.o(i.malloc) refers to mvars.o(.data) for __microlib_freelist_initialised
    malloc.o(i.malloc) refers to mvars.o(.data) for __microlib_freelist
    malloc.o(i.malloc) refers to stm32f10x_startup.o(HEAP) for __heap_base
    mallocr.o(i.__free$realloc) refers to mvars.o(.data) for __microlib_freelist
    mallocr.o(i.__malloc$realloc) refers to mallocr.o(i.internal_alloc) for internal_alloc
    mallocr.o(i.__malloc$realloc) refers to mvars.o(.data) for __microlib_freelist_initialised
    mallocr.o(i.__malloc$realloc) refers to stm32f10x_startup.o(HEAP) for __heap_base
    mallocr.o(i.__malloc$realloc) refers to mvars.o(.data) for __microlib_freelist
    mallocr.o(i.internal_alloc) refers to memcpya.o(.text) for __aeabi_memcpy
    mallocr.o(i.internal_alloc) refers to mvars.o(.data) for __microlib_freelist
    mallocr.o(i.realloc) refers to mallocr.o(i.__free$realloc) for __free$realloc
    mallocr.o(i.realloc) refers to mallocr.o(i.internal_alloc) for internal_alloc
    mallocr.o(i.realloc) refers to mallocr.o(i.__malloc$realloc) for __malloc$realloc
    mallocr.o(i.realloc) refers to mvars.o(.data) for __microlib_freelist
    malloca.o(i.__aligned_malloc) refers to mvars.o(.data) for __microlib_freelist_initialised
    malloca.o(i.__aligned_malloc) refers to mvars.o(.data) for __microlib_freelist
    malloca.o(i.__aligned_malloc) refers to stm32f10x_startup.o(HEAP) for __heap_base
    malloca.o(i.__free$memalign) refers to mvars.o(.data) for __microlib_freelist
    malloca.o(i.__malloc$memalign) refers to malloca.o(i.__aligned_malloc) for __aligned_malloc
    mallocra.o(i.__aligned_malloc$realloc) refers to mallocra.o(i.internal_alloc) for internal_alloc
    mallocra.o(i.__aligned_malloc$realloc) refers to mvars.o(.data) for __microlib_freelist_initialised
    mallocra.o(i.__aligned_malloc$realloc) refers to stm32f10x_startup.o(HEAP) for __heap_base
    mallocra.o(i.__aligned_malloc$realloc) refers to mvars.o(.data) for __microlib_freelist
    mallocra.o(i.__free$realloc$memalign) refers to mvars.o(.data) for __microlib_freelist
    mallocra.o(i.__malloc$realloc$memalign) refers to mallocra.o(i.__aligned_malloc$realloc) for __aligned_malloc$realloc
    mallocra.o(i.__realloc$memalign) refers to mallocra.o(i.__free$realloc$memalign) for __free$realloc$memalign
    mallocra.o(i.__realloc$memalign) refers to mallocra.o(i.internal_alloc) for internal_alloc
    mallocra.o(i.__realloc$memalign) refers to mallocra.o(i.__malloc$realloc$memalign) for __malloc$realloc$memalign
    mallocra.o(i.__realloc$memalign) refers to mvars.o(.data) for __microlib_freelist
    mallocra.o(i.internal_alloc) refers to memcpya.o(.text) for __aeabi_memcpy
    mallocra.o(i.internal_alloc) refers to mvars.o(.data) for __microlib_freelist
    strtoul.o(.text) refers to errno.o(i.__aeabi_errno_addr) for __aeabi_errno_addr
    strtoul.o(.text) refers to ctype_o.o(.text) for __rt_ctype_table
    strtoul.o(.text) refers to _strtoul.o(.text) for _strtoul
    atoi.o(.text) refers to errno.o(i.__aeabi_errno_addr) for __aeabi_errno_addr
    atoi.o(.text) refers to strtol.o(.text) for strtol
    atol.o(.text) refers to errno.o(i.__aeabi_errno_addr) for __aeabi_errno_addr
    atol.o(.text) refers to strtol.o(.text) for strtol
    fmul.o(.text) refers (Special) to iusefp.o(.text) for __I$use$fp
    dadd.o(.text) refers (Special) to iusefp.o(.text) for __I$use$fp
    dadd.o(.text) refers to llshl.o(.text) for __aeabi_llsl
    dadd.o(.text) refers to llsshr.o(.text) for __aeabi_lasr
    dadd.o(.text) refers to depilogue.o(.text) for _double_epilogue
    dmul.o(.text) refers (Special) to iusefp.o(.text) for __I$use$fp
    dmul.o(.text) refers to depilogue.o(.text) for _double_epilogue
    ddiv.o(.text) refers (Special) to iusefp.o(.text) for __I$use$fp
    ddiv.o(.text) refers to depilogue.o(.text) for _double_round
    dscalb.o(.text) refers (Special) to iusefp.o(.text) for __I$use$fp
    dflti.o(.text) refers (Special) to iusefp.o(.text) for __I$use$fp
    dflti.o(.text) refers to depilogue.o(.text) for _double_epilogue
    dfltui.o(.text) refers (Special) to iusefp.o(.text) for __I$use$fp
    dfltui.o(.text) refers to depilogue.o(.text) for _double_epilogue
    ffixui.o(.text) refers (Special) to iusefp.o(.text) for __I$use$fp
    dfixi.o(.text) refers (Special) to iusefp.o(.text) for __I$use$fp
    dfixi.o(.text) refers to llushr.o(.text) for __aeabi_llsr
    dfixui.o(.text) refers (Special) to iusefp.o(.text) for __I$use$fp
    dfixui.o(.text) refers to llushr.o(.text) for __aeabi_llsr
    f2d.o(.text) refers (Special) to iusefp.o(.text) for __I$use$fp
    cdcmple.o(.text) refers (Special) to iusefp.o(.text) for __I$use$fp
    cdrcmple.o(.text) refers (Special) to iusefp.o(.text) for __I$use$fp
    d2f.o(.text) refers (Special) to iusefp.o(.text) for __I$use$fp
    d2f.o(.text) refers to fepilogue.o(.text) for _float_round
    cos_i.o(i.__kernel_cos) refers (Special) to iusefp.o(.text) for __I$use$fp
    cos_i.o(i.__kernel_cos) refers to dfixi.o(.text) for __aeabi_d2iz
    cos_i.o(i.__kernel_cos) refers to dmul.o(.text) for __aeabi_dmul
    cos_i.o(i.__kernel_cos) refers to poly.o(i.__kernel_poly) for __kernel_poly
    cos_i.o(i.__kernel_cos) refers to dadd.o(.text) for __aeabi_dsub
    cos_i.o(i.__kernel_cos) refers to dscalb.o(.text) for __ARM_scalbn
    cos_i.o(i.__kernel_cos) refers to cos_i.o(.constdata) for .constdata
    cos_i.o(.constdata) refers (Special) to iusefp.o(.text) for __I$use$fp
    dunder.o(i.__mathlib_dbl_divzero) refers to ddiv.o(.text) for __aeabi_ddiv
    dunder.o(i.__mathlib_dbl_infnan) refers to dscalb.o(.text) for __ARM_scalbn
    dunder.o(i.__mathlib_dbl_infnan2) refers to dadd.o(.text) for __aeabi_dadd
    dunder.o(i.__mathlib_dbl_invalid) refers to ddiv.o(.text) for __aeabi_ddiv
    dunder.o(i.__mathlib_dbl_overflow) refers to dscalb.o(.text) for __ARM_scalbn
    dunder.o(i.__mathlib_dbl_posinfnan) refers to dmul.o(.text) for __aeabi_dmul
    dunder.o(i.__mathlib_dbl_underflow) refers to dscalb.o(.text) for __ARM_scalbn
    fpclassify.o(i.__ARM_fpclassify) refers (Special) to iusefp.o(.text) for __I$use$fp
    poly.o(i.__kernel_poly) refers (Special) to iusefp.o(.text) for __I$use$fp
    poly.o(i.__kernel_poly) refers to dmul.o(.text) for __aeabi_dmul
    poly.o(i.__kernel_poly) refers to dadd.o(.text) for __aeabi_dadd
    qnan.o(.constdata) refers (Special) to iusefp.o(.text) for __I$use$fp
    rred.o(i.__ieee754_rem_pio2) refers (Special) to iusefp.o(.text) for __I$use$fp
    rred.o(i.__ieee754_rem_pio2) refers to dadd.o(.text) for __aeabi_dsub
    rred.o(i.__ieee754_rem_pio2) refers to dmul.o(.text) for __aeabi_dmul
    rred.o(i.__ieee754_rem_pio2) refers to dfixi.o(.text) for __aeabi_d2iz
    rred.o(i.__ieee754_rem_pio2) refers to dflti.o(.text) for __aeabi_i2d
    rred.o(i.__ieee754_rem_pio2) refers to dfltui.o(.text) for __aeabi_ui2d
    rred.o(i.__ieee754_rem_pio2) refers to dscalb.o(.text) for __ARM_scalbn
    rred.o(i.__ieee754_rem_pio2) refers to rred.o(.constdata) for .constdata
    rred.o(i.__use_accurate_range_reduction) refers (Special) to iusefp.o(.text) for __I$use$fp
    rred.o(.constdata) refers (Special) to iusefp.o(.text) for __I$use$fp
    sin_i.o(i.__kernel_sin) refers (Special) to iusefp.o(.text) for __I$use$fp
    sin_i.o(i.__kernel_sin) refers to fpclassify.o(i.__ARM_fpclassify) for __ARM_fpclassify
    sin_i.o(i.__kernel_sin) refers to dunder.o(i.__mathlib_dbl_underflow) for __mathlib_dbl_underflow
    sin_i.o(i.__kernel_sin) refers to dmul.o(.text) for __aeabi_dmul
    sin_i.o(i.__kernel_sin) refers to poly.o(i.__kernel_poly) for __kernel_poly
    sin_i.o(i.__kernel_sin) refers to dscalb.o(.text) for __ARM_scalbn
    sin_i.o(i.__kernel_sin) refers to dadd.o(.text) for __aeabi_dsub
    sin_i.o(i.__kernel_sin) refers to sin_i.o(.constdata) for .constdata
    sin_i.o(.constdata) refers (Special) to iusefp.o(.text) for __I$use$fp
    sin_i_x.o(i.____kernel_sin$lsc) refers (Special) to iusefp.o(.text) for __I$use$fp
    sin_i_x.o(i.____kernel_sin$lsc) refers to dmul.o(.text) for __aeabi_dmul
    sin_i_x.o(i.____kernel_sin$lsc) refers to poly.o(i.__kernel_poly) for __kernel_poly
    sin_i_x.o(i.____kernel_sin$lsc) refers to dscalb.o(.text) for __ARM_scalbn
    sin_i_x.o(i.____kernel_sin$lsc) refers to dadd.o(.text) for __aeabi_dsub
    sin_i_x.o(i.____kernel_sin$lsc) refers to sin_i_x.o(.constdata) for .constdata
    sin_i_x.o(.constdata) refers (Special) to iusefp.o(.text) for __I$use$fp
    entry2.o(.ARM.Collect$$$$00000001) refers to entry2.o(.ARM.Collect$$$$00002712) for __lit__00000000
    entry2.o(.ARM.Collect$$$$00002712) refers to stm32f10x_startup.o(STACK) for __initial_sp
    entry2.o(__vectab_stack_and_reset_area) refers to stm32f10x_startup.o(STACK) for __initial_sp
    entry2.o(__vectab_stack_and_reset_area) refers to entry.o(.ARM.Collect$$$$00000000) for __main
    entry5.o(.ARM.Collect$$$$00000004) refers to init.o(.text) for __scatterload
    entry9a.o(.ARM.Collect$$$$0000000B) refers to main.o(.text) for main
    entry9b.o(.ARM.Collect$$$$0000000C) refers to main.o(.text) for main
    fputc.o(i.fputc) refers (Special) to iusesemip.o(.text) for __I$use$semihosting$fputc
    fputc.o(i.fputc) refers (Special) to semi.o(.text) for __semihosting_library_function
    uldiv.o(.text) refers to llushr.o(.text) for __aeabi_llsr
    uldiv.o(.text) refers to llshl.o(.text) for __aeabi_llsl
    ctype_o.o(.text) refers to ctype_o.o(.constdata) for .constdata
    ctype_o.o(.constdata) refers to ctype_o.o(.constdata) for __ctype_table
    isalnum_o.o(.text) refers to ctype_o.o(.text) for __rt_ctype_table
    isalpha_o.o(.text) refers to ctype_o.o(.text) for __rt_ctype_table
    isblank_o.o(.text) refers to ctype_o.o(.constdata) for __ctype_table
    iscntrl_o.o(.text) refers to ctype_o.o(.text) for __rt_ctype_table
    isdigit_o.o(.text) refers to ctype_o.o(.text) for __rt_ctype_table
    isgraph_o.o(.text) refers to ctype_o.o(.text) for __rt_ctype_table
    islower_o.o(.text) refers to ctype_o.o(.text) for __rt_ctype_table
    isprint_o.o(.text) refers to ctype_o.o(.text) for __rt_ctype_table
    ispunct_o.o(.text) refers to ctype_o.o(.text) for __rt_ctype_table
    isspace_o.o(.text) refers to ctype_o.o(.text) for __rt_ctype_table
    isupper_o.o(.text) refers to ctype_o.o(.text) for __rt_ctype_table
    isxdigit_o.o(.text) refers to ctype_o.o(.text) for __rt_ctype_table
    errno.o(i.__aeabi_errno_addr) refers to errno.o(.data) for .data
    errno.o(i.__read_errno) refers to errno.o(.data) for .data
    errno.o(i.__set_errno) refers to errno.o(.data) for .data
    _strtoul.o(.text) refers to _chval.o(.text) for _chval
    _strtoul.o(.text) refers to errno.o(i.__aeabi_errno_addr) for __aeabi_errno_addr
    strtod.o(.text) refers to scanf_fp.o(.text) for _scanf_real
    strtod.o(.text) refers to _sgetc.o(.text) for _sgetc
    strtod.o(.text) refers to isspace_o.o(.text) for isspace
    strtol.o(.text) refers to ctype_o.o(.text) for __rt_ctype_table
    strtol.o(.text) refers to _strtoul.o(.text) for _strtoul
    strtol.o(.text) refers to errno.o(i.__aeabi_errno_addr) for __aeabi_errno_addr
    depilogue.o(.text) refers to llshl.o(.text) for __aeabi_llsl
    depilogue.o(.text) refers to llushr.o(.text) for __aeabi_llsr
    dsqrt.o(.text) refers to llushr.o(.text) for __aeabi_llsr
    dsqrt.o(.text) refers to depilogue.o(.text) for _double_round
    dfixul.o(.text) refers to llushr.o(.text) for __aeabi_llsr
    dfixul.o(.text) refers to llshl.o(.text) for __aeabi_llsl
    init.o(.text) refers to entry5.o(.ARM.Collect$$$$00000004) for __main_after_scatterload
    isspace_c.o(.text) refers to ctype_c.o(.text) for __ctype_lookup
    scanf_fp.o(.text) refers (Special) to iusefp.o(.text) for __I$use$fp
    scanf_fp.o(.text) refers to dfltul.o(.text) for __aeabi_ul2d
    scanf_fp.o(.text) refers to dmul.o(.text) for __aeabi_dmul
    scanf_fp.o(.text) refers to ddiv.o(.text) for __aeabi_ddiv
    scanf_fp.o(.text) refers to scanf_fp.o(i._is_digit) for _is_digit
    scanf_fp.o(.text) refers to d2f.o(.text) for __aeabi_d2f
    ctype_c.o(.text) refers to ctype_c.o(.constdata) for .constdata
    dfltul.o(.text) refers to depilogue.o(.text) for _double_epilogue
    scanf_fp.o(i._is_digit) refers (Special) to iusefp.o(.text) for __I$use$fp


==============================================================================

Removing Unused input sections from the image.

    Removing cortexm3_macro.o(.text), (110 bytes).
    Removing systemtick.o(.data), (4 bytes).
    Removing ais_msgmodu.o(.constdata), (8 bytes).
    Removing ais_msgmodu.o(.constdata), (8 bytes).
    Removing ais_msgmodu.o(.data), (1 bytes).
    Removing sleepctrl.o(.data), (1 bytes).
    Removing testing.o(.constdata), (21 bytes).
    Removing testing.o(.constdata), (21 bytes).
    Removing testing.o(.data), (1 bytes).
    Removing ubloxprotocol.o(.constdata), (19 bytes).
    Removing ubloxprotocol.o(.constdata), (19 bytes).
    Removing diskio.o(.text), (184 bytes).
    Removing ff.o(.text), (6800 bytes).
    Removing ff.o(.data), (8 bytes).
    Removing filectrl.o(.text), (1408 bytes).
    Removing filectrl.o(.bss), (1740 bytes).
    Removing filectrl.o(.bss), (548 bytes).
    Removing filectrl.o(.bss), (512 bytes).
    Removing filectrl.o(.data), (14 bytes).
    Removing filectrl.o(.data), (4 bytes).
    Removing filectrl.o(.data), (4 bytes).
    Removing 24c02.o(.data), (2 bytes).
    Removing 24c02.o(.data), (2 bytes).
    Removing 24c02.o(.data), (4 bytes).
    Removing power.o(.data), (10 bytes).
    Removing rtc.o(.data), (1 bytes).
    Removing sdcard.o(.text), (6872 bytes).
    Removing sdcard.o(.bss), (180 bytes).
    Removing sdcard.o(.data), (40 bytes).
    Removing stm32f10x_can.o(.text), (1800 bytes).
    Removing stm32f10x_cec.o(.text), (248 bytes).
    Removing stm32f10x_crc.o(.text), (64 bytes).
    Removing stm32f10x_fsmc.o(.text), (1148 bytes).
    Removing stm32f10x_i2c.o(.text), (808 bytes).
    Removing stm32f10x_sdio_1.o(.text), (428 bytes).
    Removing stm32f10x_wwdg.o(.text), (124 bytes).

36 unused section(s) (total 23166 bytes) removed from the image.

==============================================================================

Image Symbol Table

    Local Symbols

    Symbol Name                              Value     Ov Type        Size  Object(Section)

    ../clib/../cmprslib/zerorunl2.c          0x00000000   Number         0  __dczerorl2.o ABSOLUTE
    ../clib/microlib/ctype/ctype.c           0x00000000   Number         0  isblank_o.o ABSOLUTE
    ../clib/microlib/ctype/ctype.c           0x00000000   Number         0  isprint_o.o ABSOLUTE
    ../clib/microlib/ctype/ctype.c           0x00000000   Number         0  isspace_c.o ABSOLUTE
    ../clib/microlib/ctype/ctype.c           0x00000000   Number         0  isdigit_o.o ABSOLUTE
    ../clib/microlib/ctype/ctype.c           0x00000000   Number         0  ctype_c.o ABSOLUTE
    ../clib/microlib/ctype/ctype.c           0x00000000   Number         0  isgraph_o.o ABSOLUTE
    ../clib/microlib/ctype/ctype.c           0x00000000   Number         0  islower_o.o ABSOLUTE
    ../clib/microlib/ctype/ctype.c           0x00000000   Number         0  isalpha_o.o ABSOLUTE
    ../clib/microlib/ctype/ctype.c           0x00000000   Number         0  iscntrl_o.o ABSOLUTE
    ../clib/microlib/ctype/ctype.c           0x00000000   Number         0  ispunct_o.o ABSOLUTE
    ../clib/microlib/ctype/ctype.c           0x00000000   Number         0  isspace_o.o ABSOLUTE
    ../clib/microlib/ctype/ctype.c           0x00000000   Number         0  isupper_o.o ABSOLUTE
    ../clib/microlib/ctype/ctype.c           0x00000000   Number         0  isxdigit_o.o ABSOLUTE
    ../clib/microlib/ctype/ctype.c           0x00000000   Number         0  isalnum_o.o ABSOLUTE
    ../clib/microlib/ctype/ctype.c           0x00000000   Number         0  ctype_o.o ABSOLUTE
    ../clib/microlib/division.c              0x00000000   Number         0  uidiv.o ABSOLUTE
    ../clib/microlib/division.c              0x00000000   Number         0  uldiv.o ABSOLUTE
    ../clib/microlib/errno.c                 0x00000000   Number         0  errno.o ABSOLUTE
    ../clib/microlib/init/entry.s            0x00000000   Number         0  entry.o ABSOLUTE
    ../clib/microlib/init/entry.s            0x00000000   Number         0  entry5.o ABSOLUTE
    ../clib/microlib/init/entry.s            0x00000000   Number         0  entry11a.o ABSOLUTE
    ../clib/microlib/init/entry.s            0x00000000   Number         0  entry10b.o ABSOLUTE
    ../clib/microlib/init/entry.s            0x00000000   Number         0  entry9a.o ABSOLUTE
    ../clib/microlib/init/entry.s            0x00000000   Number         0  entry10a.o ABSOLUTE
    ../clib/microlib/init/entry.s            0x00000000   Number         0  entry8b.o ABSOLUTE
    ../clib/microlib/init/entry.s            0x00000000   Number         0  entry9b.o ABSOLUTE
    ../clib/microlib/init/entry.s            0x00000000   Number         0  entry11b.o ABSOLUTE
    ../clib/microlib/init/entry.s            0x00000000   Number         0  entry2.o ABSOLUTE
    ../clib/microlib/init/entry.s            0x00000000   Number         0  entry8a.o ABSOLUTE
    ../clib/microlib/init/entry.s            0x00000000   Number         0  entry7b.o ABSOLUTE
    ../clib/microlib/init/entry.s            0x00000000   Number         0  entry7a.o ABSOLUTE
    ../clib/microlib/longlong.c              0x00000000   Number         0  llsshr.o ABSOLUTE
    ../clib/microlib/longlong.c              0x00000000   Number         0  llushr.o ABSOLUTE
    ../clib/microlib/longlong.c              0x00000000   Number         0  llshl.o ABSOLUTE
    ../clib/microlib/malloc/malloc.c         0x00000000   Number         0  mallocra.o ABSOLUTE
    ../clib/microlib/malloc/malloc.c         0x00000000   Number         0  mallocr.o ABSOLUTE
    ../clib/microlib/malloc/malloc.c         0x00000000   Number         0  malloca.o ABSOLUTE
    ../clib/microlib/malloc/malloc.c         0x00000000   Number         0  malloc.o ABSOLUTE
    ../clib/microlib/malloc/mvars.c          0x00000000   Number         0  mvars.o ABSOLUTE
    ../clib/microlib/printf/printf.c         0x00000000   Number         0  printf5.o ABSOLUTE
    ../clib/microlib/printf/printf.c         0x00000000   Number         0  printf6.o ABSOLUTE
    ../clib/microlib/printf/printf.c         0x00000000   Number         0  printf7.o ABSOLUTE
    ../clib/microlib/printf/printf.c         0x00000000   Number         0  printf0.o ABSOLUTE
    ../clib/microlib/printf/printf.c         0x00000000   Number         0  printfa.o ABSOLUTE
    ../clib/microlib/printf/printf.c         0x00000000   Number         0  printf8.o ABSOLUTE
    ../clib/microlib/printf/printf.c         0x00000000   Number         0  printfb.o ABSOLUTE
    ../clib/microlib/printf/printf.c         0x00000000   Number         0  printf1.o ABSOLUTE
    ../clib/microlib/printf/printf.c         0x00000000   Number         0  printf2.o ABSOLUTE
    ../clib/microlib/printf/printf.c         0x00000000   Number         0  printf3.o ABSOLUTE
    ../clib/microlib/printf/printf.c         0x00000000   Number         0  printf4.o ABSOLUTE
    ../clib/microlib/printf/stubs.s          0x00000000   Number         0  stubs.o ABSOLUTE
    ../clib/microlib/stdio/fputc.c           0x00000000   Number         0  fputc.o ABSOLUTE
    ../clib/microlib/stdio/semi.s            0x00000000   Number         0  semi.o ABSOLUTE
    ../clib/microlib/stdio/streams.c         0x00000000   Number         0  stdout.o ABSOLUTE
    ../clib/microlib/stdlib/rand.c           0x00000000   Number         0  rand.o ABSOLUTE
    ../clib/microlib/string/memcpy.c         0x00000000   Number         0  memcpya.o ABSOLUTE
    ../clib/microlib/string/memcpy.c         0x00000000   Number         0  memcpyb.o ABSOLUTE
    ../clib/microlib/string/memset.c         0x00000000   Number         0  memseta.o ABSOLUTE
    ../clib/microlib/string/strcat.c         0x00000000   Number         0  strcat.o ABSOLUTE
    ../clib/microlib/string/strcpy.c         0x00000000   Number         0  strcpy.o ABSOLUTE
    ../clib/microlib/string/strlen.c         0x00000000   Number         0  strlen.o ABSOLUTE
    ../clib/microlib/string/strncat.c        0x00000000   Number         0  strncat.o ABSOLUTE
    ../clib/microlib/string/strncmp.c        0x00000000   Number         0  strncmp.o ABSOLUTE
    ../clib/microlib/string/strncpy.c        0x00000000   Number         0  strncpy.o ABSOLUTE
    ../clib/microlib/stubs.s                 0x00000000   Number         0  iusesemip.o ABSOLUTE
    ../clib/microlib/stubs.s                 0x00000000   Number         0  iusefp.o ABSOLUTE
    ../clib/scanf.c                          0x00000000   Number         0  strtoul.o ABSOLUTE
    ../clib/scanf.c                          0x00000000   Number         0  atoi.o ABSOLUTE
    ../clib/scanf.c                          0x00000000   Number         0  atol.o ABSOLUTE
    ../clib/scanf.c                          0x00000000   Number         0  _strtoul.o ABSOLUTE
    ../clib/scanf.c                          0x00000000   Number         0  strtol.o ABSOLUTE
    ../clib/scanf.c                          0x00000000   Number         0  _chval.o ABSOLUTE
    ../clib/scanf.c                          0x00000000   Number         0  scanf_fp.o ABSOLUTE
    ../clib/scanf.c                          0x00000000   Number         0  _sgetc.o ABSOLUTE
    ../clib/scanf.c                          0x00000000   Number         0  strtod.o ABSOLUTE
    ../fplib/microlib/d2f.c                  0x00000000   Number         0  d2f.o ABSOLUTE
    ../fplib/microlib/f2d.c                  0x00000000   Number         0  f2d.o ABSOLUTE
    ../fplib/microlib/fpadd.c                0x00000000   Number         0  dadd.o ABSOLUTE
    ../fplib/microlib/fpdiv.c                0x00000000   Number         0  ddiv.o ABSOLUTE
    ../fplib/microlib/fpepilogue.c           0x00000000   Number         0  fepilogue.o ABSOLUTE
    ../fplib/microlib/fpepilogue.c           0x00000000   Number         0  depilogue.o ABSOLUTE
    ../fplib/microlib/fpfix.c                0x00000000   Number         0  dfixul.o ABSOLUTE
    ../fplib/microlib/fpfix.c                0x00000000   Number         0  dfixui.o ABSOLUTE
    ../fplib/microlib/fpfix.c                0x00000000   Number         0  dfixi.o ABSOLUTE
    ../fplib/microlib/fpfix.c                0x00000000   Number         0  ffixui.o ABSOLUTE
    ../fplib/microlib/fpflt.c                0x00000000   Number         0  dflti.o ABSOLUTE
    ../fplib/microlib/fpflt.c                0x00000000   Number         0  dfltul.o ABSOLUTE
    ../fplib/microlib/fpflt.c                0x00000000   Number         0  dfltui.o ABSOLUTE
    ../fplib/microlib/fpmul.c                0x00000000   Number         0  fmul.o ABSOLUTE
    ../fplib/microlib/fpmul.c                0x00000000   Number         0  dmul.o ABSOLUTE
    ../fplib/microlib/fpscalb.c              0x00000000   Number         0  dscalb.o ABSOLUTE
    ../fplib/microlib/fpsqrt.c               0x00000000   Number         0  dsqrt.o ABSOLUTE
    ../mathlib/asin.c                        0x00000000   Number         0  asin.o ABSOLUTE
    ../mathlib/asin.c                        0x00000000   Number         0  asin_x.o ABSOLUTE
    ../mathlib/atof.c                        0x00000000   Number         0  atof.o ABSOLUTE
    ../mathlib/cos.c                         0x00000000   Number         0  cos_x.o ABSOLUTE
    ../mathlib/cos.c                         0x00000000   Number         0  cos.o ABSOLUTE
    ../mathlib/cos_i.c                       0x00000000   Number         0  cos_i.o ABSOLUTE
    ../mathlib/dunder.c                      0x00000000   Number         0  dunder.o ABSOLUTE
    ../mathlib/fpclassify.c                  0x00000000   Number         0  fpclassify.o ABSOLUTE
    ../mathlib/poly.c                        0x00000000   Number         0  poly.o ABSOLUTE
    ../mathlib/pow.c                         0x00000000   Number         0  pow_x.o ABSOLUTE
    ../mathlib/pow.c                         0x00000000   Number         0  pow.o ABSOLUTE
    ../mathlib/qnan.c                        0x00000000   Number         0  qnan.o ABSOLUTE
    ../mathlib/rred.c                        0x00000000   Number         0  rred.o ABSOLUTE
    ../mathlib/sin.c                         0x00000000   Number         0  sin_x.o ABSOLUTE
    ../mathlib/sin.c                         0x00000000   Number         0  sin.o ABSOLUTE
    ../mathlib/sin_i.c                       0x00000000   Number         0  sin_i.o ABSOLUTE
    ../mathlib/sin_i.c                       0x00000000   Number         0  sin_i_x.o ABSOLUTE
    ../mathlib/sqrt.c                        0x00000000   Number         0  sqrt_x.o ABSOLUTE
    ../mathlib/sqrt.c                        0x00000000   Number         0  sqrt.o ABSOLUTE
    ../mathlib/strtod.c                      0x00000000   Number         0  strtod.o ABSOLUTE
    ..\PTT_lnw\src\PTT_lnw.c                 0x00000000   Number         0  ptt_lnw.o ABSOLUTE
    ..\StartUp\src\cortexm3_macro.s          0x00000000   Number         0  cortexm3_macro.o ABSOLUTE
    ..\StartUp\src\stm32f10x_it.c            0x00000000   Number         0  stm32f10x_it.o ABSOLUTE
    ..\StartUp\src\stm32f10x_startup.s       0x00000000   Number         0  stm32f10x_startup.o ABSOLUTE
    ..\StartUp\src\stm32f10x_target.c        0x00000000   Number         0  stm32f10x_target.o ABSOLUTE
    ..\StdPeriph_Driver\src\misc.c           0x00000000   Number         0  misc.o ABSOLUTE
    ..\StdPeriph_Driver\src\stm32f10x_adc.c  0x00000000   Number         0  stm32f10x_adc.o ABSOLUTE
    ..\StdPeriph_Driver\src\stm32f10x_bkp.c  0x00000000   Number         0  stm32f10x_bkp.o ABSOLUTE
    ..\StdPeriph_Driver\src\stm32f10x_can.c  0x00000000   Number         0  stm32f10x_can.o ABSOLUTE
    ..\StdPeriph_Driver\src\stm32f10x_cec.c  0x00000000   Number         0  stm32f10x_cec.o ABSOLUTE
    ..\StdPeriph_Driver\src\stm32f10x_crc.c  0x00000000   Number         0  stm32f10x_crc.o ABSOLUTE
    ..\StdPeriph_Driver\src\stm32f10x_dac.c  0x00000000   Number         0  stm32f10x_dac.o ABSOLUTE
    ..\StdPeriph_Driver\src\stm32f10x_dbgmcu.c 0x00000000   Number         0  stm32f10x_dbgmcu.o ABSOLUTE
    ..\StdPeriph_Driver\src\stm32f10x_dma.c  0x00000000   Number         0  stm32f10x_dma.o ABSOLUTE
    ..\StdPeriph_Driver\src\stm32f10x_exti.c 0x00000000   Number         0  stm32f10x_exti.o ABSOLUTE
    ..\StdPeriph_Driver\src\stm32f10x_flash.c 0x00000000   Number         0  stm32f10x_flash_1.o ABSOLUTE
    ..\StdPeriph_Driver\src\stm32f10x_fsmc.c 0x00000000   Number         0  stm32f10x_fsmc.o ABSOLUTE
    ..\StdPeriph_Driver\src\stm32f10x_gpio.c 0x00000000   Number         0  stm32f10x_gpio.o ABSOLUTE
    ..\StdPeriph_Driver\src\stm32f10x_i2c.c  0x00000000   Number         0  stm32f10x_i2c.o ABSOLUTE
    ..\StdPeriph_Driver\src\stm32f10x_iwdg.c 0x00000000   Number         0  stm32f10x_iwdg.o ABSOLUTE
    ..\StdPeriph_Driver\src\stm32f10x_pwr.c  0x00000000   Number         0  stm32f10x_pwr.o ABSOLUTE
    ..\StdPeriph_Driver\src\stm32f10x_rcc.c  0x00000000   Number         0  stm32f10x_rcc.o ABSOLUTE
    ..\StdPeriph_Driver\src\stm32f10x_rtc.c  0x00000000   Number         0  stm32f10x_rtc.o ABSOLUTE
    ..\StdPeriph_Driver\src\stm32f10x_sdio.c 0x00000000   Number         0  stm32f10x_sdio_1.o ABSOLUTE
    ..\StdPeriph_Driver\src\stm32f10x_spi.c  0x00000000   Number         0  stm32f10x_spi.o ABSOLUTE
    ..\StdPeriph_Driver\src\stm32f10x_tim.c  0x00000000   Number         0  stm32f10x_tim.o ABSOLUTE
    ..\StdPeriph_Driver\src\stm32f10x_usart.c 0x00000000   Number         0  stm32f10x_usart.o ABSOLUTE
    ..\StdPeriph_Driver\src\stm32f10x_wwdg.c 0x00000000   Number         0  stm32f10x_wwdg.o ABSOLUTE
    ..\\StartUp\\src\\stm32f10x_it.c         0x00000000   Number         0  stm32f10x_it.o ABSOLUTE
    ..\debug\src\debug.c                     0x00000000   Number         0  debug.o ABSOLUTE
    ..\driver\src\24c02.c                    0x00000000   Number         0  24c02.o ABSOLUTE
    ..\driver\src\Adc.c                      0x00000000   Number         0  adc.o ABSOLUTE
    ..\driver\src\BKPRegister.c              0x00000000   Number         0  bkpregister.o ABSOLUTE
    ..\driver\src\DAC.c                      0x00000000   Number         0  dac.o ABSOLUTE
    ..\driver\src\LED.c                      0x00000000   Number         0  led.o ABSOLUTE
    ..\driver\src\RxTx.c                     0x00000000   Number         0  rxtx.o ABSOLUTE
    ..\driver\src\SPI.c                      0x00000000   Number         0  spi.o ABSOLUTE
    ..\driver\src\Si446x.c                   0x00000000   Number         0  si446x.o ABSOLUTE
    ..\driver\src\Tim.c                      0x00000000   Number         0  tim.o ABSOLUTE
    ..\driver\src\gpiospi.c                  0x00000000   Number         0  gpiospi.o ABSOLUTE
    ..\driver\src\gps.c                      0x00000000   Number         0  gps.o ABSOLUTE
    ..\driver\src\power.c                    0x00000000   Number         0  power.o ABSOLUTE
    ..\driver\src\rtc.c                      0x00000000   Number         0  rtc.o ABSOLUTE
    ..\driver\src\sdcard.c                   0x00000000   Number         0  sdcard.o ABSOLUTE
    ..\driver\src\usart.c                    0x00000000   Number         0  usart.o ABSOLUTE
    ..\driver\src\wdg.c                      0x00000000   Number         0  wdg.o ABSOLUTE
    ..\interface_layer\Source\DataLinkService.c 0x00000000   Number         0  datalinkservice.o ABSOLUTE
    ..\interface_layer\Source\DeviceInfo.c   0x00000000   Number         0  deviceinfo.o ABSOLUTE
    ..\interface_layer\Source\LinkManagementEntity.c 0x00000000   Number         0  linkmanagemententity.o ABSOLUTE
    ..\interface_layer\Source\PhysicalLayer.c 0x00000000   Number         0  physicallayer.o ABSOLUTE
    ..\interface_layer\Source\RxTxCtrl.c     0x00000000   Number         0  rxtxctrl.o ABSOLUTE
    ..\interface_layer\Source\batteryscan.c  0x00000000   Number         0  batteryscan.o ABSOLUTE
    ..\interface_layer\Source\ioctrl.c       0x00000000   Number         0  ioctrl.o ABSOLUTE
    ..\interface_layer\Source\keyscan.c      0x00000000   Number         0  keyscan.o ABSOLUTE
    ..\interface_layer\Source\parastorage.c  0x00000000   Number         0  parastorage.o ABSOLUTE
    ..\interface_layer\Source\systemtick.c   0x00000000   Number         0  systemtick.o ABSOLUTE
    ..\migrateF4to5\migrate.c                0x00000000   Number         0  migrate.o ABSOLUTE
    ..\ptl\src\AISDigitalInterface.c         0x00000000   Number         0  aisdigitalinterface.o ABSOLUTE
    ..\ptl\src\AISMsgModule.c                0x00000000   Number         0  aismsgmodule.o ABSOLUTE
    ..\ptl\src\AIS_MsgModu.c                 0x00000000   Number         0  ais_msgmodu.o ABSOLUTE
    ..\ptl\src\AisInfo.c                     0x00000000   Number         0  aisinfo.o ABSOLUTE
    ..\ptl\src\AisPtlMain.c                  0x00000000   Number         0  aisptlmain.o ABSOLUTE
    ..\ptl\src\MsgManager.c                  0x00000000   Number         0  msgmanager.o ABSOLUTE
    ..\ptl\src\Slot.c                        0x00000000   Number         0  slot.o ABSOLUTE
    ..\ptl\src\TDMA.c                        0x00000000   Number         0  tdma.o ABSOLUTE
    ..\user\src\RfLinkSelfCheck.c            0x00000000   Number         0  rflinkselfcheck.o ABSOLUTE
    ..\user\src\SelfCheck.c                  0x00000000   Number         0  selfcheck.o ABSOLUTE
    ..\user\src\TaskManager.c                0x00000000   Number         0  taskmanager.o ABSOLUTE
    ..\user\src\TransceiverCtrl.c            0x00000000   Number         0  transceiverctrl.o ABSOLUTE
    ..\user\src\UbloxProtocol.c              0x00000000   Number         0  ubloxprotocol.o ABSOLUTE
    ..\user\src\adjust.c                     0x00000000   Number         0  adjust.o ABSOLUTE
    ..\user\src\batteryctrl.c                0x00000000   Number         0  batteryctrl.o ABSOLUTE
    ..\user\src\common.c                     0x00000000   Number         0  common.o ABSOLUTE
    ..\user\src\diskio.c                     0x00000000   Number         0  diskio.o ABSOLUTE
    ..\user\src\encrypt.c                    0x00000000   Number         0  encrypt.o ABSOLUTE
    ..\user\src\ff.c                         0x00000000   Number         0  ff.o ABSOLUTE
    ..\user\src\filectrl.c                   0x00000000   Number         0  filectrl.o ABSOLUTE
    ..\user\src\flashctrl.c                  0x00000000   Number         0  flashctrl.o ABSOLUTE
    ..\user\src\gpsctrl.c                    0x00000000   Number         0  gpsctrl.o ABSOLUTE
    ..\user\src\initial.c                    0x00000000   Number         0  initial.o ABSOLUTE
    ..\user\src\ledctrl.c                    0x00000000   Number         0  ledctrl.o ABSOLUTE
    ..\user\src\main.c                       0x00000000   Number         0  main.o ABSOLUTE
    ..\user\src\powerdown.c                  0x00000000   Number         0  powerdown.o ABSOLUTE
    ..\user\src\powerup.c                    0x00000000   Number         0  powerup.o ABSOLUTE
    ..\user\src\sleepctrl.c                  0x00000000   Number         0  sleepctrl.o ABSOLUTE
    ..\user\src\tempersensor.c               0x00000000   Number         0  tempersensor.o ABSOLUTE
    ..\user\src\testing.c                    0x00000000   Number         0  testing.o ABSOLUTE
    ..\user\src\uartmsg.c                    0x00000000   Number         0  uartmsg.o ABSOLUTE
    cdcmple.s                                0x00000000   Number         0  cdcmple.o ABSOLUTE
    cdrcmple.s                               0x00000000   Number         0  cdrcmple.o ABSOLUTE
    dc.s                                     0x00000000   Number         0  dc.o ABSOLUTE
    handlers.s                               0x00000000   Number         0  handlers.o ABSOLUTE
    init.s                                   0x00000000   Number         0  init.o ABSOLUTE
    RESET                                    0x08000000   Section      304  stm32f10x_startup.o(RESET)
    .ARM.Collect$$$$00000000                 0x08000130   Section        0  entry.o(.ARM.Collect$$$$00000000)
    .ARM.Collect$$$$00000001                 0x08000130   Section        4  entry2.o(.ARM.Collect$$$$00000001)
    .ARM.Collect$$$$00000004                 0x08000134   Section        4  entry5.o(.ARM.Collect$$$$00000004)
    .ARM.Collect$$$$00000008                 0x08000138   Section        0  entry7b.o(.ARM.Collect$$$$00000008)
    .ARM.Collect$$$$0000000A                 0x08000138   Section        0  entry8b.o(.ARM.Collect$$$$0000000A)
    .ARM.Collect$$$$0000000B                 0x08000138   Section        8  entry9a.o(.ARM.Collect$$$$0000000B)
    .ARM.Collect$$$$0000000D                 0x08000140   Section        0  entry10a.o(.ARM.Collect$$$$0000000D)
    .ARM.Collect$$$$0000000F                 0x08000140   Section        0  entry11a.o(.ARM.Collect$$$$0000000F)
    .ARM.Collect$$$$00002712                 0x08000140   Section        4  entry2.o(.ARM.Collect$$$$00002712)
    __lit__00000000                          0x08000140   Data           4  entry2.o(.ARM.Collect$$$$00002712)
    .emb_text                                0x08000144   Section        2  stm32f10x_it.o(.emb_text)
    .text                                    0x08000148   Section        0  stm32f10x_target.o(.text)
    RCC_Configuration                        0x08000295   Thumb Code   116  stm32f10x_target.o(.text)
    NVIC_Configuration                       0x08000309   Thumb Code   198  stm32f10x_target.o(.text)
    .text                                    0x080003e0   Section        0  stm32f10x_it.o(.text)
    .text                                    0x080004d8   Section        8  stm32f10x_startup.o(.text)
    .text                                    0x080004e0   Section        0  ioctrl.o(.text)
    .text                                    0x080005b8   Section        0  parastorage.o(.text)
    .text                                    0x08000aa8   Section        0  rxtxctrl.o(.text)
    .text                                    0x08000abc   Section        0  systemtick.o(.text)
    .text                                    0x08000b1c   Section        0  datalinkservice.o(.text)
    DLS_BitStreamPutBit                      0x08000b55   Thumb Code    92  datalinkservice.o(.text)
    DLS_BitStreamGetBit                      0x08000bc3   Thumb Code    88  datalinkservice.o(.text)
    DLS_BitStreamGetFrame                    0x08000c2d   Thumb Code   218  datalinkservice.o(.text)
    DLS_FrameRxFifoEnque                     0x08000d07   Thumb Code   108  datalinkservice.o(.text)
    DLS_FrameRxFifoDeque                     0x08000de5   Thumb Code    98  datalinkservice.o(.text)
    DLS_PacketProbeProcess                   0x08000eaf   Thumb Code   310  datalinkservice.o(.text)
    DLS_PacketProbeStructInit                0x08001603   Thumb Code    40  datalinkservice.o(.text)
    DLS_BitStreamIsBuffFull                  0x0800162b   Thumb Code    34  datalinkservice.o(.text)
    DLS_BitStreamNextFrameSetup              0x0800164d   Thumb Code    26  datalinkservice.o(.text)
    DLS_BitStreamGetBitQuantity              0x08001667   Thumb Code    38  datalinkservice.o(.text)
    DLS_BitStreamFindFrameHeader             0x0800168d   Thumb Code   142  datalinkservice.o(.text)
    DLS_BitStreamFindFrameTailer             0x0800171b   Thumb Code   156  datalinkservice.o(.text)
    DLS_BitStreamGetBitNum                   0x080017b7   Thumb Code    18  datalinkservice.o(.text)
    .text                                    0x080017c8   Section        0  linkmanagemententity.o(.text)
    LME_BinMsgRxFifoEnque                    0x080017f1   Thumb Code   108  linkmanagemententity.o(.text)
    LME_BinMsgTxFifoEnque                    0x0800185d   Thumb Code   108  linkmanagemententity.o(.text)
    LME_BinMsgRxFifoDeque                    0x080018db   Thumb Code    98  linkmanagemententity.o(.text)
    LME_BinMsgTxFifoDeque                    0x0800193d   Thumb Code    98  linkmanagemententity.o(.text)
    LME_BinMsgRxFifoPortIn                   0x080019b1   Thumb Code   200  linkmanagemententity.o(.text)
    LME_BinMsgRxFifoPortOut                  0x08001a89   Thumb Code   140  linkmanagemententity.o(.text)
    .text                                    0x08001c7c   Section        0  physicallayer.o(.text)
    PHY_NRZIStructInit                       0x08001ce9   Thumb Code    12  physicallayer.o(.text)
    PHY_NRZIDecodeStart                      0x08001cf5   Thumb Code    14  physicallayer.o(.text)
    PHY_NRZIDecode                           0x08001d03   Thumb Code    34  physicallayer.o(.text)
    .text                                    0x08001d28   Section        0  ais_msgmodu.o(.text)
    rad                                      0x08002853   Thumb Code    22  ais_msgmodu.o(.text)
    .text                                    0x08002bbc   Section        0  aisdigitalinterface.o(.text)
    .text                                    0x08003e1c   Section        0  aismsgmodule.o(.text)
    AISMSG_ParseMsg1_2                       0x08005dcf   Thumb Code   316  aismsgmodule.o(.text)
    AISMSG_ParseMsg3                         0x08005f0b   Thumb Code   298  aismsgmodule.o(.text)
    AISMSG_ParseMsg4_11                      0x08006035   Thumb Code   332  aismsgmodule.o(.text)
    AISMSG_ParseMsg5                         0x08006181   Thumb Code   396  aismsgmodule.o(.text)
    AISMSG_ParseMsg6                         0x0800630d   Thumb Code   260  aismsgmodule.o(.text)
    AISMSG_ParseMsg7_13                      0x08006411   Thumb Code   234  aismsgmodule.o(.text)
    AISMSG_ParseMsg8                         0x080064fb   Thumb Code   214  aismsgmodule.o(.text)
    AISMSG_ParseMsg9                         0x080065d1   Thumb Code   402  aismsgmodule.o(.text)
    AISMSG_ParseMsg12                        0x08006763   Thumb Code   218  aismsgmodule.o(.text)
    AISMSG_ParseMsg15                        0x0800683d   Thumb Code   260  aismsgmodule.o(.text)
    AISMSG_ParseMsg16                        0x08006941   Thumb Code   182  aismsgmodule.o(.text)
    AISMSG_ParseMsg17                        0x080069f7   Thumb Code   254  aismsgmodule.o(.text)
    AISMSG_ParseMsg18                        0x08006af5   Thumb Code   446  aismsgmodule.o(.text)
    AISMSG_ParseMsg19                        0x08006cb3   Thumb Code   366  aismsgmodule.o(.text)
    AISMSG_ParseMsg20                        0x08006e21   Thumb Code   346  aismsgmodule.o(.text)
    AISMSG_ParseMsg21                        0x08006f7b   Thumb Code   430  aismsgmodule.o(.text)
    AISMSG_ParseMsg22                        0x08007129   Thumb Code   264  aismsgmodule.o(.text)
    AISMSG_ParseMsg23                        0x08007231   Thumb Code   228  aismsgmodule.o(.text)
    AISMSG_ParseMsg24B                       0x08007315   Thumb Code   268  aismsgmodule.o(.text)
    AISMSG_ParseMsg25                        0x08007421   Thumb Code   502  aismsgmodule.o(.text)
    AISMSG_ParseMsg26                        0x08007617   Thumb Code   668  aismsgmodule.o(.text)
    AISMSG_ParseMsg27                        0x080078b3   Thumb Code   194  aismsgmodule.o(.text)
    AISMSG_ParseMsg10                        0x08007d39   Thumb Code   106  aismsgmodule.o(.text)
    AISMSG_ParseMsg14                        0x08007da3   Thumb Code   176  aismsgmodule.o(.text)
    AISMSG_ParseMsg24A                       0x08007e53   Thumb Code   150  aismsgmodule.o(.text)
    .text                                    0x08007ee8   Section        0  slot.o(.text)
    .text                                    0x08008244   Section        0  tdma.o(.text)
    SOTDMA_SotdmaParaStructInit              0x0800825b   Thumb Code   112  tdma.o(.text)
    SOTDMA_SotdmaParaStructReset             0x080082cb   Thumb Code    92  tdma.o(.text)
    SOTDMA_SotdmaParaStructCopy              0x08008327   Thumb Code   156  tdma.o(.text)
    SOTDMA_GetAvailableNts                   0x080083dd   Thumb Code    64  tdma.o(.text)
    SOTDMA_IsSendTimArrived                  0x0800841d   Thumb Code   104  tdma.o(.text)
    SOTDMA_SetNextNs                         0x08008485   Thumb Code    60  tdma.o(.text)
    SOTDMA_GetNextTmo                        0x08008545   Thumb Code    78  tdma.o(.text)
    SOTDMA_GetSubMsg                         0x08008593   Thumb Code    92  tdma.o(.text)
    TDMA_SendMsg                             0x08008659   Thumb Code    60  tdma.o(.text)
    SOTDMA_Schedule                          0x080086cb   Thumb Code  1498  tdma.o(.text)
    SOTDMA_ScheduleDual                      0x08008ca5   Thumb Code   404  tdma.o(.text)
    ITDMA_ItdmaParaStructInit                0x08008e4f   Thumb Code    50  tdma.o(.text)
    ITDMA_Schedule                           0x08008ebb   Thumb Code   348  tdma.o(.text)
    TDMA_TdmaSchedStructInit                 0x0800908d   Thumb Code    60  tdma.o(.text)
    TDMA_Schedule                            0x080090d1   Thumb Code   708  tdma.o(.text)
    SOTDMA_SotdmaSchedStructInit             0x080093f5   Thumb Code    28  tdma.o(.text)
    SOTDMA_SotdmaSchedDualStructInit         0x08009411   Thumb Code    28  tdma.o(.text)
    SOTDMA_FrameReportCntIncrease            0x0800942d   Thumb Code    24  tdma.o(.text)
    SOTDMA_SetRr                             0x08009445   Thumb Code    38  tdma.o(.text)
    SOTDMA_IsAtSi                            0x0800946b   Thumb Code    24  tdma.o(.text)
    SOTDMA_SetNss                            0x08009483   Thumb Code    18  tdma.o(.text)
    SOTDMA_SetFirstNs                        0x08009495   Thumb Code    34  tdma.o(.text)
    SOTDMA_GetNextNs                         0x080094b7   Thumb Code    32  tdma.o(.text)
    SOTDMA_SetNextNts                        0x080094d7   Thumb Code    48  tdma.o(.text)
    SOTDMA_GetNextNts                        0x08009507   Thumb Code    40  tdma.o(.text)
    SOTDMA_SetNextTmo                        0x0800952f   Thumb Code    54  tdma.o(.text)
    ITDMA_ItdmaSchedStructInit               0x08009565   Thumb Code    28  tdma.o(.text)
    ITDMA_ItdmaSchedDualStructInit           0x08009581   Thumb Code    96  tdma.o(.text)
    ITDMA_SetNi                              0x080095e1   Thumb Code    16  tdma.o(.text)
    ITDMA_SetSelectIntervalOffset            0x080095f1   Thumb Code    16  tdma.o(.text)
    ITDMA_ScheduleDual                       0x08009601   Thumb Code   130  tdma.o(.text)
    SOTDMA_SotdmaCtrlStructInit              0x08009683   Thumb Code    24  tdma.o(.text)
    ITDMA_ItdmaCtrlStructInit                0x0800969b   Thumb Code    18  tdma.o(.text)
    .text                                    0x080096e8   Section        0  deviceinfo.o(.text)
    .text                                    0x08009774   Section        0  aisinfo.o(.text)
    AISINFO_AisStaticInfoStructInit          0x0800981f   Thumb Code   144  aisinfo.o(.text)
    .text                                    0x080098ec   Section        0  msgmanager.o(.text)
    MSGMAN_MsgCellStructCopy                 0x08009a15   Thumb Code    60  msgmanager.o(.text)
    MSGMAN_MsgStaticListInsert               0x08009a51   Thumb Code   256  msgmanager.o(.text)
    MSGMAN_PeriodSchedule                    0x08009db5   Thumb Code   390  msgmanager.o(.text)
    MSGMAN_MsgStaticListStructInit           0x08009f3b   Thumb Code    72  msgmanager.o(.text)
    MSGMAN_MsgStaticListGetHead              0x08009f83   Thumb Code    76  msgmanager.o(.text)
    MSGMAN_AisAckFifoEnque                   0x08009ff9   Thumb Code    56  msgmanager.o(.text)
    MSGMAN_AisAckFifoDeque                   0x0800a031   Thumb Code    50  msgmanager.o(.text)
    MSGMAN_BurstSchedule                     0x0800a3cf   Thumb Code   518  msgmanager.o(.text)
    MSGMAN_PeriodSchedStructInit             0x0800ab51   Thumb Code    40  msgmanager.o(.text)
    MSGMAN_AisAckFifoStructInit              0x0800ab79   Thumb Code    26  msgmanager.o(.text)
    MSGMAN_MsgStaticListIsFull               0x0800ab93   Thumb Code    16  msgmanager.o(.text)
    MSGMAN_MsgStaticListIsEmpty              0x0800aba3   Thumb Code    16  msgmanager.o(.text)
    MSGMAN_AisAckFifoIsEmpty                 0x0800abb3   Thumb Code    16  msgmanager.o(.text)
    MSGMAN_MsgTxTaskStructInit               0x0800abc3   Thumb Code    28  msgmanager.o(.text)
    .text                                    0x0800abf8   Section        0  aisptlmain.o(.text)
    .text                                    0x0800ac20   Section        0  adjust.o(.text)
    .text                                    0x0800b340   Section        0  common.o(.text)
    .text                                    0x0800b7e8   Section        0  gpsctrl.o(.text)
    .text                                    0x0800d0f0   Section        0  initial.o(.text)
    .text                                    0x0800d164   Section        0  ledctrl.o(.text)
    .text                                    0x0800d7cc   Section        0  main.o(.text)
    .text                                    0x0800d8e4   Section        0  powerup.o(.text)
    .text                                    0x0800defc   Section        0  sleepctrl.o(.text)
    .text                                    0x0800e09c   Section        0  testing.o(.text)
    .text                                    0x0800e50c   Section        0  uartmsg.o(.text)
    .text                                    0x08010cec   Section        0  ubloxprotocol.o(.text)
    UBX_UBXPrtCommStructInit                 0x08010ced   Thumb Code    96  ubloxprotocol.o(.text)
    UBX_UBXPrtMsgSendBuff                    0x08010db1   Thumb Code    82  ubloxprotocol.o(.text)
    UBX_UBXPrtCommCtrlProcess                0x08010ea1   Thumb Code   318  ubloxprotocol.o(.text)
    UBX_GpsNormalConfig                      0x08011055   Thumb Code   140  ubloxprotocol.o(.text)
    UBX_MsgRxProcess                         0x0801110d   Thumb Code   224  ubloxprotocol.o(.text)
    UBX_GetReceivedUbxMess                   0x080111ed   Thumb Code   118  ubloxprotocol.o(.text)
    UBX_GpsIdleConfig                        0x08011263   Thumb Code   132  ubloxprotocol.o(.text)
    UBX_MsgDealProcess                       0x080112e7   Thumb Code    84  ubloxprotocol.o(.text)
    .text                                    0x0801137c   Section        0  transceiverctrl.o(.text)
    TRCTRL_TransceiverTxCtrlStructInit       0x0801137d   Thumb Code    34  transceiverctrl.o(.text)
    TRCTRL_TransceiverTestStructInit         0x080113a3   Thumb Code    36  transceiverctrl.o(.text)
    TRCTRL_TxTestSignalInit                  0x080113d9   Thumb Code   202  transceiverctrl.o(.text)
    TRCTRL_TxTestGetSignalBit                0x080114a3   Thumb Code    94  transceiverctrl.o(.text)
    TRCTRL_TxGetSignalBit                    0x08011501   Thumb Code   114  transceiverctrl.o(.text)
    TRCTRL_TxTestCfgInit                     0x0801198b   Thumb Code    58  transceiverctrl.o(.text)
    TRCTRL_GetTxTestFlg                      0x080119c5   Thumb Code    10  transceiverctrl.o(.text)
    TRCTRL_TxTestIsTx                        0x080119cf   Thumb Code    10  transceiverctrl.o(.text)
    .text                                    0x08011ab4   Section        0  selfcheck.o(.text)
    SLFCHK_SelfCheckProcess                  0x08011b1b   Thumb Code  2210  selfcheck.o(.text)
    SLFCHK_SelfCheckStructInit               0x080123cd   Thumb Code    44  selfcheck.o(.text)
    SLFCHK_GetCheckSelect                    0x080123f9   Thumb Code    18  selfcheck.o(.text)
    .text                                    0x0801240c   Section        0  rflinkselfcheck.o(.text)
    .text                                    0x0801252c   Section        0  taskmanager.o(.text)
    .text                                    0x08012738   Section        0  flashctrl.o(.text)
    .text                                    0x08012ab8   Section        0  encrypt.o(.text)
    .text                                    0x08012d34   Section        0  24c02.o(.text)
    .text                                    0x08013164   Section        0  adc.o(.text)
    .text                                    0x08013388   Section        0  bkpregister.o(.text)
    .text                                    0x08013458   Section        0  dac.o(.text)
    .text                                    0x080134d8   Section        0  gps.o(.text)
    .text                                    0x08013724   Section        0  led.o(.text)
    .text                                    0x08013824   Section        0  power.o(.text)
    .text                                    0x08013960   Section        0  rtc.o(.text)
    .text                                    0x08014258   Section        0  rxtx.o(.text)
    .text                                    0x080142c0   Section        0  spi.o(.text)
    .text                                    0x08014454   Section        0  tim.o(.text)
    .text                                    0x08014ae8   Section        0  usart.o(.text)
    .text                                    0x08014fc0   Section        0  wdg.o(.text)
    .text                                    0x0801500c   Section        0  gpiospi.o(.text)
    GPIOSPI_SendData                         0x080150d7   Thumb Code   354  gpiospi.o(.text)
    GPIOSPI_WaitClockPeriod                  0x08015243   Thumb Code    16  gpiospi.o(.text)
    GPIOSPI_WaitClockPhase                   0x08015253   Thumb Code    18  gpiospi.o(.text)
    .text                                    0x08015270   Section        0  si446x.o(.text)
    .text                                    0x080172d8   Section        0  debug.o(.text)
    .text                                    0x08017468   Section        0  misc.o(.text)
    .text                                    0x08017518   Section        0  stm32f10x_adc.o(.text)
    .text                                    0x08017848   Section        0  stm32f10x_bkp.o(.text)
    .text                                    0x080178e0   Section        0  stm32f10x_dac.o(.text)
    .text                                    0x080179dc   Section        0  stm32f10x_dbgmcu.o(.text)
    .text                                    0x08017a04   Section        0  stm32f10x_dma.o(.text)
    .text                                    0x08017bcc   Section        0  stm32f10x_exti.o(.text)
    .text                                    0x08017cb4   Section        0  stm32f10x_flash_1.o(.text)
    .text                                    0x08018130   Section        0  stm32f10x_gpio.o(.text)
    .text                                    0x0801839c   Section        0  stm32f10x_iwdg.o(.text)
    .text                                    0x080183d8   Section        0  stm32f10x_pwr.o(.text)
    .text                                    0x08018484   Section        0  stm32f10x_rcc.o(.text)
    .text                                    0x0801874c   Section        0  stm32f10x_rtc.o(.text)
    .text                                    0x0801885c   Section        0  stm32f10x_spi.o(.text)
    .text                                    0x08018ad0   Section        0  stm32f10x_tim.o(.text)
    TI2_Config                               0x08018e63   Thumb Code   166  stm32f10x_tim.o(.text)
    TI1_Config                               0x08018f19   Thumb Code    88  stm32f10x_tim.o(.text)
    .text                                    0x080195c4   Section        0  stm32f10x_usart.o(.text)
    .text                                    0x080198ec   Section        0  migrate.o(.text)
    .text                                    0x08019928   Section        0  ptt_lnw.o(.text)
    .text                                    0x08019be0   Section        0  rand.o(.text)
    .text                                    0x08019c04   Section        0  memcpya.o(.text)
    .text                                    0x08019c28   Section        0  memseta.o(.text)
    .text                                    0x08019c4c   Section        0  strcat.o(.text)
    .text                                    0x08019c64   Section        0  strncpy.o(.text)
    .text                                    0x08019c7c   Section        0  strlen.o(.text)
    .text                                    0x08019c8a   Section        0  strncat.o(.text)
    .text                                    0x08019cb2   Section        0  strcpy.o(.text)
    .text                                    0x08019cc4   Section        0  strncmp.o(.text)
    .text                                    0x08019ce2   Section        0  strtoul.o(.text)
    .text                                    0x08019d54   Section        0  atoi.o(.text)
    .text                                    0x08019d6e   Section        0  atol.o(.text)
    .text                                    0x08019d88   Section        0  fmul.o(.text)
    .text                                    0x08019dec   Section        0  dadd.o(.text)
    .text                                    0x08019f3a   Section        0  dmul.o(.text)
    .text                                    0x0801a01e   Section        0  ddiv.o(.text)
    .text                                    0x0801a0fc   Section        0  dscalb.o(.text)
    .text                                    0x0801a12a   Section        0  dflti.o(.text)
    .text                                    0x0801a14c   Section        0  dfltui.o(.text)
    .text                                    0x0801a166   Section        0  ffixui.o(.text)
    .text                                    0x0801a18e   Section        0  dfixi.o(.text)
    .text                                    0x0801a1cc   Section        0  dfixui.o(.text)
    .text                                    0x0801a1fe   Section        0  f2d.o(.text)
    .text                                    0x0801a224   Section       48  cdcmple.o(.text)
    .text                                    0x0801a254   Section       48  cdrcmple.o(.text)
    .text                                    0x0801a284   Section        0  d2f.o(.text)
    .text                                    0x0801a2bc   Section        0  uidiv.o(.text)
    .text                                    0x0801a2e8   Section        0  uldiv.o(.text)
    .text                                    0x0801a34a   Section        0  llshl.o(.text)
    .text                                    0x0801a368   Section        0  llushr.o(.text)
    .text                                    0x0801a388   Section        0  llsshr.o(.text)
    .text                                    0x0801a3ac   Section        0  ctype_o.o(.text)
    .text                                    0x0801a3b4   Section        0  isspace_o.o(.text)
    .text                                    0x0801a3c6   Section        0  _strtoul.o(.text)
    .text                                    0x0801a464   Section        0  strtod.o(.text)
    _local_sscanf                            0x0801a465   Thumb Code    54  strtod.o(.text)
    .text                                    0x0801a500   Section        0  strtol.o(.text)
    .text                                    0x0801a570   Section        0  fepilogue.o(.text)
    .text                                    0x0801a570   Section        0  iusefp.o(.text)
    .text                                    0x0801a5de   Section        0  depilogue.o(.text)
    .text                                    0x0801a698   Section        0  dsqrt.o(.text)
    .text                                    0x0801a73a   Section        0  dfixul.o(.text)
    .text                                    0x0801a76c   Section       36  init.o(.text)
    .text                                    0x0801a790   Section        0  _chval.o(.text)
    .text                                    0x0801a7ac   Section        0  scanf_fp.o(.text)
    _fp_value                                0x0801a7ad   Thumb Code   256  scanf_fp.o(.text)
    .text                                    0x0801aae4   Section        0  _sgetc.o(.text)
    .text                                    0x0801ab24   Section        0  dfltul.o(.text)
    .text                                    0x0801ab3c   Section        0  __dczerorl2.o(.text)
    i.__0sprintf                             0x0801ab94   Section        0  printfa.o(i.__0sprintf)
    i.__0vsprintf                            0x0801abbc   Section        0  printfa.o(i.__0vsprintf)
    i.__ARM_fpclassify                       0x0801abe0   Section        0  fpclassify.o(i.__ARM_fpclassify)
    i.__aeabi_errno_addr                     0x0801ac08   Section        0  errno.o(i.__aeabi_errno_addr)
    i.__ieee754_rem_pio2                     0x0801ac10   Section        0  rred.o(i.__ieee754_rem_pio2)
    i.__kernel_cos                           0x0801af98   Section        0  cos_i.o(i.__kernel_cos)
    i.__kernel_poly                          0x0801b094   Section        0  poly.o(i.__kernel_poly)
    i.__kernel_sin                           0x0801b140   Section        0  sin_i.o(i.__kernel_sin)
    i.__mathlib_dbl_divzero                  0x0801b22c   Section        0  dunder.o(i.__mathlib_dbl_divzero)
    i.__mathlib_dbl_infnan                   0x0801b23c   Section        0  dunder.o(i.__mathlib_dbl_infnan)
    i.__mathlib_dbl_infnan2                  0x0801b242   Section        0  dunder.o(i.__mathlib_dbl_infnan2)
    i.__mathlib_dbl_invalid                  0x0801b246   Section        0  dunder.o(i.__mathlib_dbl_invalid)
    i.__mathlib_dbl_overflow                 0x0801b252   Section        0  dunder.o(i.__mathlib_dbl_overflow)
    i.__mathlib_dbl_underflow                0x0801b260   Section        0  dunder.o(i.__mathlib_dbl_underflow)
    i.__read_errno                           0x0801b270   Section        0  errno.o(i.__read_errno)
    i.__scatterload_copy                     0x0801b27c   Section       14  handlers.o(i.__scatterload_copy)
    i.__scatterload_null                     0x0801b28a   Section        2  handlers.o(i.__scatterload_null)
    i.__scatterload_zeroinit                 0x0801b28c   Section       14  handlers.o(i.__scatterload_zeroinit)
    i.__set_errno                            0x0801b29c   Section        0  errno.o(i.__set_errno)
    i._fp_digits                             0x0801b2a8   Section        0  printfa.o(i._fp_digits)
    _fp_digits                               0x0801b2a9   Thumb Code   334  printfa.o(i._fp_digits)
    i._is_digit                              0x0801b40c   Section        0  scanf_fp.o(i._is_digit)
    i._printf_core                           0x0801b41c   Section        0  printfa.o(i._printf_core)
    _printf_core                             0x0801b41d   Thumb Code  1744  printfa.o(i._printf_core)
    i._printf_post_padding                   0x0801baf8   Section        0  printfa.o(i._printf_post_padding)
    _printf_post_padding                     0x0801baf9   Thumb Code    36  printfa.o(i._printf_post_padding)
    i._printf_pre_padding                    0x0801bb1c   Section        0  printfa.o(i._printf_pre_padding)
    _printf_pre_padding                      0x0801bb1d   Thumb Code    46  printfa.o(i._printf_pre_padding)
    i._sputc                                 0x0801bb4a   Section        0  printfa.o(i._sputc)
    _sputc                                   0x0801bb4b   Thumb Code    10  printfa.o(i._sputc)
    i.asin                                   0x0801bb54   Section        0  asin.o(i.asin)
    i.atof                                   0x0801bdc4   Section        0  atof.o(i.atof)
    i.cos                                    0x0801bdf0   Section        0  cos.o(i.cos)
    i.free                                   0x0801be8c   Section        0  malloc.o(i.free)
    i.malloc                                 0x0801bedc   Section        0  malloc.o(i.malloc)
    i.pow                                    0x0801bf48   Section        0  pow.o(i.pow)
    i.sin                                    0x0801c920   Section        0  sin.o(i.sin)
    i.sqrt                                   0x0801c9c0   Section        0  sqrt.o(i.sqrt)
    i.strtod                                 0x0801ca0c   Section        0  strtod.o(i.strtod)
    .constdata                               0x0801ca28   Section       19  aisdigitalinterface.o(.constdata)
    __func__                                 0x0801ca28   Data          19  aisdigitalinterface.o(.constdata)
    .constdata                               0x0801ca3b   Section       68  tdma.o(.constdata)
    __func__                                 0x0801ca3b   Data          20  tdma.o(.constdata)
    __func__                                 0x0801ca4f   Data          15  tdma.o(.constdata)
    __func__                                 0x0801ca5e   Data          19  tdma.o(.constdata)
    __func__                                 0x0801ca71   Data          14  tdma.o(.constdata)
    .constdata                               0x0801ca7f   Section      175  msgmanager.o(.constdata)
    __func__                                 0x0801ca7f   Data          22  msgmanager.o(.constdata)
    __func__                                 0x0801ca95   Data           9  msgmanager.o(.constdata)
    __func__                                 0x0801ca9e   Data           9  msgmanager.o(.constdata)
    __func__                                 0x0801caa7   Data           9  msgmanager.o(.constdata)
    __func__                                 0x0801cab0   Data           9  msgmanager.o(.constdata)
    __func__                                 0x0801cab9   Data          13  msgmanager.o(.constdata)
    __func__                                 0x0801cac6   Data           9  msgmanager.o(.constdata)
    __func__                                 0x0801cacf   Data           9  msgmanager.o(.constdata)
    __func__                                 0x0801cad8   Data          10  msgmanager.o(.constdata)
    __func__                                 0x0801cae2   Data          10  msgmanager.o(.constdata)
    __func__                                 0x0801caec   Data          10  msgmanager.o(.constdata)
    __func__                                 0x0801caf6   Data          10  msgmanager.o(.constdata)
    __func__                                 0x0801cb00   Data          14  msgmanager.o(.constdata)
    __func__                                 0x0801cb0e   Data          10  msgmanager.o(.constdata)
    __func__                                 0x0801cb18   Data          11  msgmanager.o(.constdata)
    __func__                                 0x0801cb23   Data          11  msgmanager.o(.constdata)
    .constdata                               0x0801cb2e   Section      512  common.o(.constdata)
    .constdata                               0x0801cd2e   Section       15  gpsctrl.o(.constdata)
    __func__                                 0x0801cd2e   Data          15  gpsctrl.o(.constdata)
    .constdata                               0x0801cd3d   Section      336  ledctrl.o(.constdata)
    LED_None_Buf                             0x0801cd3d   Data          12  ledctrl.o(.constdata)
    LED_GPS_Search_Buf                       0x0801cd49   Data          12  ledctrl.o(.constdata)
    LED_GPS_Fix_Buf                          0x0801cd55   Data          24  ledctrl.o(.constdata)
    LED_RF_Xmt_Buf                           0x0801cd6d   Data          24  ledctrl.o(.constdata)
    LED_Timeout_Buf                          0x0801cd85   Data          12  ledctrl.o(.constdata)
    LED_Err_Buf                              0x0801cd91   Data          12  ledctrl.o(.constdata)
    LED_PowerNormal_Buf                      0x0801cd9d   Data          24  ledctrl.o(.constdata)
    LED_PowerTest_Buf                        0x0801cdb5   Data          24  ledctrl.o(.constdata)
    LED_Test_Test1_Buf                       0x0801cdcd   Data          24  ledctrl.o(.constdata)
    LED_Test_Test2_Buf                       0x0801cde5   Data          24  ledctrl.o(.constdata)
    LED_Test_Test3_Buf                       0x0801cdfd   Data          24  ledctrl.o(.constdata)
    LED_Test_Test4_Buf                       0x0801ce15   Data          24  ledctrl.o(.constdata)
    LED_TEST_RX_Buf                          0x0801ce2d   Data          24  ledctrl.o(.constdata)
    LED_SELF_CHECK_IDLE_Buf                  0x0801ce45   Data          24  ledctrl.o(.constdata)
    LED_SELF_CHECK_RUNNING_Buf               0x0801ce5d   Data          24  ledctrl.o(.constdata)
    LED_SELF_CHECK_OK_Buf                    0x0801ce75   Data          12  ledctrl.o(.constdata)
    LED_SELF_CHECK_ERR_Buf                   0x0801ce81   Data          12  ledctrl.o(.constdata)
    .constdata                               0x0801ce8d   Section       83  testing.o(.constdata)
    .constdata                               0x0801cee0   Section      426  ubloxprotocol.o(.constdata)
    .constdata                               0x0801d08a   Section       86  transceiverctrl.o(.constdata)
    __func__                                 0x0801d0c9   Data          23  transceiverctrl.o(.constdata)
    .constdata                               0x0801d0e0   Section       17  taskmanager.o(.constdata)
    __func__                                 0x0801d0e0   Data          17  taskmanager.o(.constdata)
    .constdata                               0x0801d0f8   Section       80  asin.o(.constdata)
    pS                                       0x0801d0f8   Data          48  asin.o(.constdata)
    qS                                       0x0801d128   Data          32  asin.o(.constdata)
    .constdata                               0x0801d148   Section      136  pow.o(.constdata)
    bp                                       0x0801d148   Data          16  pow.o(.constdata)
    dp_h                                     0x0801d158   Data          16  pow.o(.constdata)
    dp_l                                     0x0801d168   Data          16  pow.o(.constdata)
    L                                        0x0801d178   Data          48  pow.o(.constdata)
    P                                        0x0801d1a8   Data          40  pow.o(.constdata)
    .constdata                               0x0801d1d0   Section       48  cos_i.o(.constdata)
    C                                        0x0801d1d0   Data          48  cos_i.o(.constdata)
    .constdata                               0x0801d200   Section        8  qnan.o(.constdata)
    .constdata                               0x0801d208   Section      200  rred.o(.constdata)
    pio2s                                    0x0801d208   Data          48  rred.o(.constdata)
    twooverpi                                0x0801d238   Data         152  rred.o(.constdata)
    .constdata                               0x0801d2d0   Section       40  sin_i.o(.constdata)
    S                                        0x0801d2d0   Data          40  sin_i.o(.constdata)
    .constdata                               0x0801d2f8   Section      129  ctype_o.o(.constdata)
    .constdata                               0x0801d37c   Section        4  ctype_o.o(.constdata)
    table                                    0x0801d37c   Data           4  ctype_o.o(.constdata)
    .conststring                             0x0801d380   Section      326  tdma.o(.conststring)
    .conststring                             0x0801d4c8   Section      134  gpsctrl.o(.conststring)
    .conststring                             0x0801d550   Section       71  testing.o(.conststring)
    .conststring                             0x0801d598   Section       68  transceiverctrl.o(.conststring)
    .data                                    0x20000000   Section        1  stm32f10x_target.o(.data)
    .data                                    0x20000004   Section      132  parastorage.o(.data)
    .data                                    0x20000088   Section        8  systemtick.o(.data)
    .data                                    0x20000090   Section        6  physicallayer.o(.data)
    NRZIDecode1                              0x20000090   Data           3  physicallayer.o(.data)
    NRZIDecode2                              0x20000093   Data           3  physicallayer.o(.data)
    .data                                    0x20000096   Section        3  ais_msgmodu.o(.data)
    seqNum                                   0x20000096   Data           1  ais_msgmodu.o(.data)
    seqNum                                   0x20000097   Data           1  ais_msgmodu.o(.data)
    seqNum                                   0x20000098   Data           1  ais_msgmodu.o(.data)
    .data                                    0x20000099   Section        2  aisdigitalinterface.o(.data)
    msgSeq                                   0x20000099   Data           1  aisdigitalinterface.o(.data)
    msgSeq                                   0x2000009a   Data           1  aisdigitalinterface.o(.data)
    .data                                    0x200000a0   Section       40  gpsctrl.o(.data)
    .data                                    0x200000c8   Section        2  powerup.o(.data)
    .data                                    0x200000cc   Section        4  sleepctrl.o(.data)
    .data                                    0x200000d0   Section        4  sleepctrl.o(.data)
    .data                                    0x200000d4   Section        4  sleepctrl.o(.data)
    .data                                    0x200000d8   Section        1  testing.o(.data)
    .data                                    0x200000d9   Section        1  testing.o(.data)
    .data                                    0x200000da   Section       21  selfcheck.o(.data)
    RtcSelfCheckInst                         0x200000da   Data           3  selfcheck.o(.data)
    EepromSelfCheckInst                      0x200000dd   Data           4  selfcheck.o(.data)
    Si446xSelfCheckInstA                     0x200000e1   Data           7  selfcheck.o(.data)
    Si446xSelfCheckInstB                     0x200000e8   Data           7  selfcheck.o(.data)
    .data                                    0x200000f0   Section      192  flashctrl.o(.data)
    .data                                    0x200001b0   Section       14  adc.o(.data)
    .data                                    0x200001be   Section       84  bkpregister.o(.data)
    .data                                    0x20000214   Section       20  gps.o(.data)
    .data                                    0x20000228   Section        8  led.o(.data)
    .data                                    0x20000230   Section        3  power.o(.data)
    .data                                    0x20000238   Section       88  rtc.o(.data)
    .data                                    0x20000290   Section       56  tim.o(.data)
    .data                                    0x200002c8   Section        8  usart.o(.data)
    .data                                    0x200002d0   Section        1  wdg.o(.data)
    .data                                    0x200002d4   Section      509  si446x.o(.data)
    Si446xPatchCmds                          0x200002d8   Data         505  si446x.o(.data)
    .data                                    0x200004d1   Section        1  debug.o(.data)
    .data                                    0x200004d2   Section       20  stm32f10x_rcc.o(.data)
    ADCPrescTable                            0x200004d2   Data           4  stm32f10x_rcc.o(.data)
    APBAHBPrescTable                         0x200004d6   Data          16  stm32f10x_rcc.o(.data)
    .data                                    0x200004e8   Section        4  rand.o(.data)
    _rand_state                              0x200004e8   Data           4  rand.o(.data)
    .data                                    0x200004ec   Section        4  mvars.o(.data)
    .data                                    0x200004f0   Section        4  mvars.o(.data)
    .data                                    0x200004f4   Section        4  errno.o(.data)
    _errno                                   0x200004f4   Data           4  errno.o(.data)
    .bss                                     0x200004f8   Section       20  stm32f10x_target.o(.bss)
    rcc_clocks                               0x200004f8   Data          20  stm32f10x_target.o(.bss)
    .bss                                     0x2000050c   Section     6174  datalinkservice.o(.bss)
    PacketProbeInst1                         0x2000050c   Data        1296  datalinkservice.o(.bss)
    PacketProbeInst2                         0x20000a1c   Data        1296  datalinkservice.o(.bss)
    FrameFifoRx1                             0x20000f2c   Data        1208  datalinkservice.o(.bss)
    FrameFifoRx2                             0x200013e4   Data        1208  datalinkservice.o(.bss)
    FrameFifoTx                              0x2000189c   Data        1166  datalinkservice.o(.bss)
    .bss                                     0x20001d2c   Section     3596  linkmanagemententity.o(.bss)
    BinMsgFifoRx1                            0x20001d2c   Data        1208  linkmanagemententity.o(.bss)
    BinMsgFifoRx2                            0x200021e4   Data        1208  linkmanagemententity.o(.bss)
    BinMsgFifoTx                             0x2000269c   Data        1180  linkmanagemententity.o(.bss)
    .bss                                     0x20002b38   Section      208  ais_msgmodu.o(.bss)
    .bss                                     0x20002c08   Section     1682  aisdigitalinterface.o(.bss)
    .bss                                     0x2000329c   Section     3060  aismsgmodule.o(.bss)
    .bss                                     0x20003e90   Section    16208  slot.o(.bss)
    SlotMap                                  0x20003e90   Data       16208  slot.o(.bss)
    .bss                                     0x20007de0   Section      764  tdma.o(.bss)
    TdmaSched                                0x20007de0   Data         764  tdma.o(.bss)
    .bss                                     0x200080dc   Section       56  deviceinfo.o(.bss)
    .bss                                     0x20008114   Section      156  aisinfo.o(.bss)
    RecStationPara                           0x20008190   Data          32  aisinfo.o(.bss)
    .bss                                     0x200081b0   Section     2548  msgmanager.o(.bss)
    TxMsgList                                0x200081b0   Data        1096  msgmanager.o(.bss)
    RxMsgList                                0x200085f8   Data        1096  msgmanager.o(.bss)
    PeriodSched                              0x20008a40   Data         116  msgmanager.o(.bss)
    BurstSched                               0x20008ab4   Data         240  msgmanager.o(.bss)
    .bss                                     0x20008ba4   Section       68  adjust.o(.bss)
    .bss                                     0x20008be8   Section      380  gpsctrl.o(.bss)
    .bss                                     0x20008d64   Section       88  ledctrl.o(.bss)
    .bss                                     0x20008dbc   Section       44  sleepctrl.o(.bss)
    .bss                                     0x20008de8   Section      184  testing.o(.bss)
    .bss                                     0x20008ea0   Section     2416  ubloxprotocol.o(.bss)
    UBXPrtCommPara                           0x20008ea0   Data        2416  ubloxprotocol.o(.bss)
    .bss                                     0x20009810   Section      552  transceiverctrl.o(.bss)
    .bss                                     0x20009a38   Section       52  selfcheck.o(.bss)
    BatterySelfCheckInst                     0x20009a38   Data          12  selfcheck.o(.bss)
    RfLinkSelfCheckInst                      0x20009a44   Data          16  selfcheck.o(.bss)
    SelfCheckInst                            0x20009a54   Data          24  selfcheck.o(.bss)
    .bss                                     0x20009a6c   Section       24  taskmanager.o(.bss)
    .bss                                     0x20009a84   Section       84  bkpregister.o(.bss)
    .bss                                     0x20009ad8   Section     2066  gps.o(.bss)
    .bss                                     0x2000a2f0   Section       40  rtc.o(.bss)
    .bss                                     0x2000a318   Section     2066  usart.o(.bss)
    .bss                                     0x2000ab2a   Section       10  gpiospi.o(.bss)
    GpioSpiInstance1                         0x2000ab2a   Data          10  gpiospi.o(.bss)
    .bss                                     0x2000ab34   Section       56  si446x.o(.bss)
    SI446XA                                  0x2000ab34   Data          28  si446x.o(.bss)
    SI446XB                                  0x2000ab50   Data          28  si446x.o(.bss)
    .bss                                     0x2000ab6c   Section      768  debug.o(.bss)
    string                                   0x2000ab6c   Data         256  debug.o(.bss)
    string                                   0x2000ac6c   Data         256  debug.o(.bss)
    string                                   0x2000ad6c   Data         256  debug.o(.bss)
    .bss                                     0x2000ae6c   Section       36  ptt_lnw.o(.bss)
    HEAP                                     0x2000ae90   Section     1024  stm32f10x_startup.o(HEAP)
    STACK                                    0x2000b290   Section     1024  stm32f10x_startup.o(STACK)

    Global Symbols

    Symbol Name                              Value     Ov Type        Size  Object(Section)

    BuildAttributes$$THM_ISAv4$P$D$K$B$S$PE$A:L22UL41UL21$X:L11$S22US41US21$IEEE1$IW$USESV6$~STKCKD$USESV7$~SHL$OTIME$ROPI$IEEEX$EBA8$MICROLIB$REQ8$PRES8$EABIv2 0x00000000   Number         0  anon$$obj.o ABSOLUTE
    __ARM_use_no_argv                        0x00000000   Number         0  main.o ABSOLUTE
    _printf_a                                0x00000000   Number         0  stubs.o ABSOLUTE
    _printf_c                                0x00000000   Number         0  stubs.o ABSOLUTE
    _printf_charcount                        0x00000000   Number         0  stubs.o ABSOLUTE
    _printf_d                                0x00000000   Number         0  stubs.o ABSOLUTE
    _printf_e                                0x00000000   Number         0  stubs.o ABSOLUTE
    _printf_f                                0x00000000   Number         0  stubs.o ABSOLUTE
    _printf_flags                            0x00000000   Number         0  stubs.o ABSOLUTE
    _printf_fp_dec                           0x00000000   Number         0  stubs.o ABSOLUTE
    _printf_fp_hex                           0x00000000   Number         0  stubs.o ABSOLUTE
    _printf_g                                0x00000000   Number         0  stubs.o ABSOLUTE
    _printf_i                                0x00000000   Number         0  stubs.o ABSOLUTE
    _printf_int_dec                          0x00000000   Number         0  stubs.o ABSOLUTE
    _printf_l                                0x00000000   Number         0  stubs.o ABSOLUTE
    _printf_lc                               0x00000000   Number         0  stubs.o ABSOLUTE
    _printf_ll                               0x00000000   Number         0  stubs.o ABSOLUTE
    _printf_lld                              0x00000000   Number         0  stubs.o ABSOLUTE
    _printf_lli                              0x00000000   Number         0  stubs.o ABSOLUTE
    _printf_llo                              0x00000000   Number         0  stubs.o ABSOLUTE
    _printf_llu                              0x00000000   Number         0  stubs.o ABSOLUTE
    _printf_llx                              0x00000000   Number         0  stubs.o ABSOLUTE
    _printf_longlong_dec                     0x00000000   Number         0  stubs.o ABSOLUTE
    _printf_longlong_hex                     0x00000000   Number         0  stubs.o ABSOLUTE
    _printf_longlong_oct                     0x00000000   Number         0  stubs.o ABSOLUTE
    _printf_ls                               0x00000000   Number         0  stubs.o ABSOLUTE
    _printf_mbtowc                           0x00000000   Number         0  stubs.o ABSOLUTE
    _printf_n                                0x00000000   Number         0  stubs.o ABSOLUTE
    _printf_o                                0x00000000   Number         0  stubs.o ABSOLUTE
    _printf_p                                0x00000000   Number         0  stubs.o ABSOLUTE
    _printf_percent                          0x00000000   Number         0  stubs.o ABSOLUTE
    _printf_pre_padding                      0x00000000   Number         0  stubs.o ABSOLUTE
    _printf_return_value                     0x00000000   Number         0  stubs.o ABSOLUTE
    _printf_s                                0x00000000   Number         0  stubs.o ABSOLUTE
    _printf_sizespec                         0x00000000   Number         0  stubs.o ABSOLUTE
    _printf_str                              0x00000000   Number         0  stubs.o ABSOLUTE
    _printf_truncate_signed                  0x00000000   Number         0  stubs.o ABSOLUTE
    _printf_truncate_unsigned                0x00000000   Number         0  stubs.o ABSOLUTE
    _printf_u                                0x00000000   Number         0  stubs.o ABSOLUTE
    _printf_wc                               0x00000000   Number         0  stubs.o ABSOLUTE
    _printf_wctomb                           0x00000000   Number         0  stubs.o ABSOLUTE
    _printf_widthprec                        0x00000000   Number         0  stubs.o ABSOLUTE
    _printf_x                                0x00000000   Number         0  stubs.o ABSOLUTE
    __cpp_initialize__aeabi_                  - Undefined Weak Reference
    __cxa_finalize                            - Undefined Weak Reference
    _clock_init                               - Undefined Weak Reference
    _microlib_exit                            - Undefined Weak Reference
    __Vectors                                0x08000000   Data           4  stm32f10x_startup.o(RESET)
    __main                                   0x08000131   Thumb Code     0  entry.o(.ARM.Collect$$$$00000000)
    _main_stk                                0x08000131   Thumb Code     0  entry2.o(.ARM.Collect$$$$00000001)
    _main_scatterload                        0x08000135   Thumb Code     0  entry5.o(.ARM.Collect$$$$00000004)
    __main_after_scatterload                 0x08000139   Thumb Code     0  entry5.o(.ARM.Collect$$$$00000004)
    _main_clock                              0x08000139   Thumb Code     0  entry7b.o(.ARM.Collect$$$$00000008)
    _main_cpp_init                           0x08000139   Thumb Code     0  entry8b.o(.ARM.Collect$$$$0000000A)
    _main_init                               0x08000139   Thumb Code     0  entry9a.o(.ARM.Collect$$$$0000000B)
    __rt_final_cpp                           0x08000141   Thumb Code     0  entry10a.o(.ARM.Collect$$$$0000000D)
    __rt_final_exit                          0x08000141   Thumb Code     0  entry11a.o(.ARM.Collect$$$$0000000F)
    wait                                     0x08000145   Thumb Code     2  stm32f10x_it.o(.emb_text)
    EnableRtcInterrupt                       0x08000149   Thumb Code    34  stm32f10x_target.o(.text)
    Clock_Configuration                      0x0800016b   Thumb Code    78  stm32f10x_target.o(.text)
    SYSCLKConfig_STOP                        0x080001b9   Thumb Code    58  stm32f10x_target.o(.text)
    EnterStopMod                             0x080001f3   Thumb Code    16  stm32f10x_target.o(.text)
    EnterStandbyMod                          0x08000203   Thumb Code    18  stm32f10x_target.o(.text)
    MCU_DebugConfig                          0x08000215   Thumb Code     8  stm32f10x_target.o(.text)
    Target_SysClock_Init                     0x0800021d   Thumb Code    12  stm32f10x_target.o(.text)
    Target_Periph_Init                       0x08000229   Thumb Code    78  stm32f10x_target.o(.text)
    Target_Init                              0x08000277   Thumb Code    16  stm32f10x_target.o(.text)
    BSP_CPU_ClkFreq                          0x08000287   Thumb Code    14  stm32f10x_target.o(.text)
    NMIException                             0x080003e1   Thumb Code     2  stm32f10x_it.o(.text)
    NMI_Handler                              0x080003e1   Thumb Code     0  stm32f10x_it.o(.text)
    HardFaultException                       0x080003e3   Thumb Code     8  stm32f10x_it.o(.text)
    HardFault_Handler                        0x080003e3   Thumb Code     0  stm32f10x_it.o(.text)
    MemManageException                       0x080003eb   Thumb Code     8  stm32f10x_it.o(.text)
    MemManage_Handler                        0x080003eb   Thumb Code     0  stm32f10x_it.o(.text)
    BusFaultException                        0x080003f3   Thumb Code     8  stm32f10x_it.o(.text)
    BusFault_Handler                         0x080003f3   Thumb Code     0  stm32f10x_it.o(.text)
    UsageFaultException                      0x080003fb   Thumb Code     8  stm32f10x_it.o(.text)
    UsageFault_Handler                       0x080003fb   Thumb Code     0  stm32f10x_it.o(.text)
    DebugMon_Handler                         0x08000403   Thumb Code     0  stm32f10x_it.o(.text)
    DebugMonitor                             0x08000403   Thumb Code     2  stm32f10x_it.o(.text)
    SVCHandler                               0x08000405   Thumb Code     2  stm32f10x_it.o(.text)
    SVC_Handler                              0x08000405   Thumb Code     0  stm32f10x_it.o(.text)
    PendSVC                                  0x08000407   Thumb Code     2  stm32f10x_it.o(.text)
    PendSV_Handler                           0x08000407   Thumb Code     0  stm32f10x_it.o(.text)
    SysTickHandler                           0x08000409   Thumb Code     2  stm32f10x_it.o(.text)
    SysTick_Handler                          0x08000409   Thumb Code     0  stm32f10x_it.o(.text)
    WWDG_IRQHandler                          0x0800040b   Thumb Code     2  stm32f10x_it.o(.text)
    PVD_IRQHandler                           0x0800040d   Thumb Code     2  stm32f10x_it.o(.text)
    TAMPER_IRQHandler                        0x0800040f   Thumb Code     2  stm32f10x_it.o(.text)
    RTC_IRQHandler                           0x08000411   Thumb Code     2  stm32f10x_it.o(.text)
    FLASH_IRQHandler                         0x08000413   Thumb Code     2  stm32f10x_it.o(.text)
    RCC_IRQHandler                           0x08000415   Thumb Code     2  stm32f10x_it.o(.text)
    EXTI0_IRQHandler                         0x08000417   Thumb Code     2  stm32f10x_it.o(.text)
    EXTI1_IRQHandler                         0x08000419   Thumb Code     4  stm32f10x_it.o(.text)
    EXTI2_IRQHandler                         0x0800041d   Thumb Code     2  stm32f10x_it.o(.text)
    EXTI3_IRQHandler                         0x0800041f   Thumb Code     2  stm32f10x_it.o(.text)
    EXTI4_IRQHandler                         0x08000421   Thumb Code     2  stm32f10x_it.o(.text)
    DMA1_Channel1_IRQHandler                 0x08000423   Thumb Code     4  stm32f10x_it.o(.text)
    DMA1_Channel2_IRQHandler                 0x08000427   Thumb Code     2  stm32f10x_it.o(.text)
    DMA1_Channel3_IRQHandler                 0x08000429   Thumb Code     2  stm32f10x_it.o(.text)
    DMA1_Channel4_IRQHandler                 0x0800042b   Thumb Code     2  stm32f10x_it.o(.text)
    DMA1_Channel5_IRQHandler                 0x0800042d   Thumb Code     2  stm32f10x_it.o(.text)
    DMA1_Channel6_IRQHandler                 0x0800042f   Thumb Code     2  stm32f10x_it.o(.text)
    DMA1_Channel7_IRQHandler                 0x08000431   Thumb Code     2  stm32f10x_it.o(.text)
    ADC1_2_IRQHandler                        0x08000433   Thumb Code     4  stm32f10x_it.o(.text)
    USB_HP_CAN_TX_IRQHandler                 0x08000437   Thumb Code     2  stm32f10x_it.o(.text)
    USB_LP_CAN_RX0_IRQHandler                0x08000439   Thumb Code     2  stm32f10x_it.o(.text)
    CAN_RX1_IRQHandler                       0x0800043b   Thumb Code     2  stm32f10x_it.o(.text)
    CAN_SCE_IRQHandler                       0x0800043d   Thumb Code     2  stm32f10x_it.o(.text)
    EXTI9_5_IRQHandler                       0x0800043f   Thumb Code     2  stm32f10x_it.o(.text)
    TIM1_BRK_IRQHandler                      0x08000441   Thumb Code     2  stm32f10x_it.o(.text)
    TIM1_UP_IRQHandler                       0x08000443   Thumb Code     2  stm32f10x_it.o(.text)
    TIM1_TRG_COM_IRQHandler                  0x08000445   Thumb Code     2  stm32f10x_it.o(.text)
    TIM1_CC_IRQHandler                       0x08000447   Thumb Code     2  stm32f10x_it.o(.text)
    TIM2_IRQHandler                          0x08000449   Thumb Code     4  stm32f10x_it.o(.text)
    TIM3_IRQHandler                          0x0800044d   Thumb Code     2  stm32f10x_it.o(.text)
    TIM4_IRQHandler                          0x0800044f   Thumb Code     2  stm32f10x_it.o(.text)
    I2C1_EV_IRQHandler                       0x08000451   Thumb Code     2  stm32f10x_it.o(.text)
    I2C1_ER_IRQHandler                       0x08000453   Thumb Code     2  stm32f10x_it.o(.text)
    I2C2_EV_IRQHandler                       0x08000455   Thumb Code     2  stm32f10x_it.o(.text)
    I2C2_ER_IRQHandler                       0x08000457   Thumb Code     2  stm32f10x_it.o(.text)
    SPI1_IRQHandler                          0x08000459   Thumb Code     2  stm32f10x_it.o(.text)
    SPI2_IRQHandler                          0x0800045b   Thumb Code     2  stm32f10x_it.o(.text)
    USART1_IRQHandler                        0x0800045d   Thumb Code     4  stm32f10x_it.o(.text)
    USART2_IRQHandler                        0x08000461   Thumb Code     4  stm32f10x_it.o(.text)
    USART3_IRQHandler                        0x08000465   Thumb Code     2  stm32f10x_it.o(.text)
    EXTI15_10_IRQHandler                     0x08000467   Thumb Code    14  stm32f10x_it.o(.text)
    RTCAlarm_IRQHandler                      0x08000475   Thumb Code     4  stm32f10x_it.o(.text)
    USBWakeUp_IRQHandler                     0x08000479   Thumb Code     2  stm32f10x_it.o(.text)
    TIM8_BRK_IRQHandler                      0x0800047b   Thumb Code     2  stm32f10x_it.o(.text)
    TIM8_UP_IRQHandler                       0x0800047d   Thumb Code     2  stm32f10x_it.o(.text)
    TIM8_TRG_COM_IRQHandler                  0x0800047f   Thumb Code     2  stm32f10x_it.o(.text)
    TIM8_CC_IRQHandler                       0x08000481   Thumb Code     2  stm32f10x_it.o(.text)
    ADC3_IRQHandler                          0x08000483   Thumb Code     2  stm32f10x_it.o(.text)
    FSMC_IRQHandler                          0x08000485   Thumb Code     2  stm32f10x_it.o(.text)
    SDIO_IRQHandler                          0x08000487   Thumb Code     2  stm32f10x_it.o(.text)
    TIM5_IRQHandler                          0x08000489   Thumb Code     2  stm32f10x_it.o(.text)
    SPI3_IRQHandler                          0x0800048b   Thumb Code     2  stm32f10x_it.o(.text)
    UART4_IRQHandler                         0x0800048d   Thumb Code     2  stm32f10x_it.o(.text)
    UART5_IRQHandler                         0x0800048f   Thumb Code     2  stm32f10x_it.o(.text)
    TIM6_IRQHandler                          0x08000491   Thumb Code     2  stm32f10x_it.o(.text)
    TIM7_IRQHandler                          0x08000493   Thumb Code     2  stm32f10x_it.o(.text)
    DMA2_Channel1_IRQHandler                 0x08000495   Thumb Code     2  stm32f10x_it.o(.text)
    DMA2_Channel2_IRQHandler                 0x08000497   Thumb Code     2  stm32f10x_it.o(.text)
    DMA2_Channel3_IRQHandler                 0x08000499   Thumb Code     2  stm32f10x_it.o(.text)
    DMA2_Channel4_5_IRQHandler               0x0800049b   Thumb Code     2  stm32f10x_it.o(.text)
    Reset_Handler                            0x080004d9   Thumb Code     4  stm32f10x_startup.o(.text)
    IO_Ctrl                                  0x080004e1   Thumb Code   204  ioctrl.o(.text)
    IO_Write                                 0x080005ad   Thumb Code     2  ioctrl.o(.text)
    Para_Save                                0x080005b9   Thumb Code   204  parastorage.o(.text)
    Para_DefaultRead                         0x08000685   Thumb Code    80  parastorage.o(.text)
    Para_Read                                0x080006d5   Thumb Code   278  parastorage.o(.text)
    Para_OpenTimeSave                        0x080007eb   Thumb Code    12  parastorage.o(.text)
    Para_CloseTimeSave                       0x080007f7   Thumb Code    12  parastorage.o(.text)
    IniEEPROM_Para                           0x08000803   Thumb Code   672  parastorage.o(.text)
    RxTxCtrl                                 0x08000aa9   Thumb Code    18  rxtxctrl.o(.text)
    LocalClockStateCtrlProcess               0x08000abd   Thumb Code    18  systemtick.o(.text)
    init_systermtick                         0x08000acf   Thumb Code     2  systemtick.o(.text)
    GetLocalClockTickProcess                 0x08000ad1   Thumb Code     6  systemtick.o(.text)
    SetTimePeriodProcess                     0x08000ad7   Thumb Code    34  systemtick.o(.text)
    LocalClockCtrlMainProcess                0x08000af9   Thumb Code    32  systemtick.o(.text)
    DLS_InstFrameFifoStructInit              0x08000b1d   Thumb Code    38  datalinkservice.o(.text)
    DLS_InstPacketProbeStructInit            0x08000b43   Thumb Code    18  datalinkservice.o(.text)
    DLS_InstBitStreamPutBit                  0x08000bb1   Thumb Code    18  datalinkservice.o(.text)
    DLS_InstBitStreamGetBit                  0x08000c1b   Thumb Code    18  datalinkservice.o(.text)
    DLS_Inst1FrameRxFifoEnque                0x08000d73   Thumb Code     6  datalinkservice.o(.text)
    DLS_Inst2FrameRxFifoEnque                0x08000d79   Thumb Code     6  datalinkservice.o(.text)
    DLS_InstFrameTxFifoEnque                 0x08000d7f   Thumb Code   102  datalinkservice.o(.text)
    DLS_Inst1FrameRxFifoDeque                0x08000e47   Thumb Code     6  datalinkservice.o(.text)
    DLS_Inst2FrameRxFifoDeque                0x08000e4d   Thumb Code     6  datalinkservice.o(.text)
    DLS_InstFrameTxFifoDeque                 0x08000e53   Thumb Code    92  datalinkservice.o(.text)
    DLS_InstPacketProbeProcess               0x08000fe5   Thumb Code    22  datalinkservice.o(.text)
    DLS_FrameCrcCheck                        0x08000ffb   Thumb Code    68  datalinkservice.o(.text)
    DLS_FrameBitStuff                        0x0800103f   Thumb Code   210  datalinkservice.o(.text)
    DLS_FrameBitDestuff                      0x08001111   Thumb Code   210  datalinkservice.o(.text)
    DLS_FrameDataPack                        0x080011e3   Thumb Code   176  datalinkservice.o(.text)
    DLS_FrameDataPack1                       0x08001293   Thumb Code   240  datalinkservice.o(.text)
    DLS_FrameDataDepack                      0x08001383   Thumb Code   126  datalinkservice.o(.text)
    DLS_FrameNrziCode                        0x08001401   Thumb Code   180  datalinkservice.o(.text)
    DLS_FrameNrziDecode                      0x080014b5   Thumb Code   148  datalinkservice.o(.text)
    DLS_FrameBuild                           0x08001549   Thumb Code    64  datalinkservice.o(.text)
    DLS_FrameBuildTest                       0x08001589   Thumb Code    54  datalinkservice.o(.text)
    DLS_FrameBuildTest2                      0x080015bf   Thumb Code    54  datalinkservice.o(.text)
    DLS_ModuleInit                           0x080015f5   Thumb Code    14  datalinkservice.o(.text)
    LME_InstBinMsgFifoStructInit             0x080017c9   Thumb Code    38  linkmanagemententity.o(.text)
    LME_ModuleInit                           0x080017ef   Thumb Code     2  linkmanagemententity.o(.text)
    LME_Inst1BinMsgRxFifoEnque               0x080018c9   Thumb Code     6  linkmanagemententity.o(.text)
    LME_Inst2BinMsgRxFifoEnque               0x080018cf   Thumb Code     6  linkmanagemententity.o(.text)
    LME_InstBinMsgTxFifoEnque                0x080018d5   Thumb Code     6  linkmanagemententity.o(.text)
    LME_Inst1BinMsgRxFifoDeque               0x0800199f   Thumb Code     6  linkmanagemententity.o(.text)
    LME_Inst2BinMsgRxFifoDeque               0x080019a5   Thumb Code     6  linkmanagemententity.o(.text)
    LME_InstBinMsgTxFifoDeque                0x080019ab   Thumb Code     6  linkmanagemententity.o(.text)
    LME_InstBinMsgRxFifoPortIn               0x08001a79   Thumb Code    16  linkmanagemententity.o(.text)
    LME_InstBinMsgRxFifoPortOut              0x08001b15   Thumb Code    16  linkmanagemententity.o(.text)
    LME_BinMsgTxFifoPortOut                  0x08001b25   Thumb Code   216  linkmanagemententity.o(.text)
    LME_InstBinMsgTxFifoPortOut              0x08001bfd   Thumb Code     4  linkmanagemententity.o(.text)
    LME_InstBinMsgTxFifoPortIn               0x08001c01   Thumb Code    96  linkmanagemententity.o(.text)
    LME_BinMsgPort                           0x08001c61   Thumb Code    22  linkmanagemententity.o(.text)
    PHY_InstNRZIStructInit                   0x08001c7d   Thumb Code    20  physicallayer.o(.text)
    PHY_InstNRZIDecodeStart                  0x08001c91   Thumb Code    22  physicallayer.o(.text)
    PHY_InstNRZIDecodeStop                   0x08001ca7   Thumb Code    20  physicallayer.o(.text)
    PHY_InstNRZIDecode                       0x08001cbb   Thumb Code    22  physicallayer.o(.text)
    PHY_ModuleInit                           0x08001cd1   Thumb Code    24  physicallayer.o(.text)
    InitGpsCell                              0x08001d29   Thumb Code     6  ais_msgmodu.o(.text)
    bitmap_set_value_for_U8                  0x08001d2f   Thumb Code   246  ais_msgmodu.o(.text)
    bitmap_set_value                         0x08001e25   Thumb Code    98  ais_msgmodu.o(.text)
    bitmap_get_value_for_U8                  0x08001e87   Thumb Code   124  ais_msgmodu.o(.text)
    bitmap_get_value                         0x08001f03   Thumb Code   120  ais_msgmodu.o(.text)
    InitMsg1                                 0x08001f7b   Thumb Code   114  ais_msgmodu.o(.text)
    InitMsg3                                 0x08001fed   Thumb Code   116  ais_msgmodu.o(.text)
    InitMsg5                                 0x08002061   Thumb Code   176  ais_msgmodu.o(.text)
    InitMsg6                                 0x08002111   Thumb Code   226  ais_msgmodu.o(.text)
    InitMsg6Test                             0x080021f3   Thumb Code    74  ais_msgmodu.o(.text)
    InitMsg7                                 0x0800223d   Thumb Code   168  ais_msgmodu.o(.text)
    InitMsg8                                 0x080022e5   Thumb Code   200  ais_msgmodu.o(.text)
    InitMsg12                                0x080023ad   Thumb Code    98  ais_msgmodu.o(.text)
    InitMsg13                                0x0800240f   Thumb Code   168  ais_msgmodu.o(.text)
    InitMsg14                                0x080024b7   Thumb Code    90  ais_msgmodu.o(.text)
    InitMsg18                                0x08002511   Thumb Code   156  ais_msgmodu.o(.text)
    InitMsg18Test                            0x080025ad   Thumb Code   100  ais_msgmodu.o(.text)
    InitMsg19                                0x08002611   Thumb Code   144  ais_msgmodu.o(.text)
    InitMsg24A                               0x080026a1   Thumb Code    50  ais_msgmodu.o(.text)
    InitMsg24B                               0x080026d3   Thumb Code   150  ais_msgmodu.o(.text)
    UpdateDynamicReportInterval              0x08002769   Thumb Code    50  ais_msgmodu.o(.text)
    UpdateAisDynamicInfo                     0x0800279b   Thumb Code   120  ais_msgmodu.o(.text)
    GetTemperForCOG                          0x08002813   Thumb Code    64  ais_msgmodu.o(.text)
    GetDistance                              0x08002869   Thumb Code   272  ais_msgmodu.o(.text)
    GetSOG                                   0x08002979   Thumb Code   472  ais_msgmodu.o(.text)
    AISDI_InitABMStruct                      0x08002bbd   Thumb Code    30  aisdigitalinterface.o(.text)
    AISDI_InitBBMStruct                      0x08002bdb   Thumb Code    28  aisdigitalinterface.o(.text)
    AISDI_InitAisDiSenFifoInstance           0x08002bf7   Thumb Code    14  aisdigitalinterface.o(.text)
    AsciiToSixBinCode                        0x08002c05   Thumb Code    18  aisdigitalinterface.o(.text)
    SixBinCodeToAscii                        0x08002c17   Thumb Code    14  aisdigitalinterface.o(.text)
    AISDI_IsSenQueFull                       0x08002c25   Thumb Code    50  aisdigitalinterface.o(.text)
    AISDI_IsSenQueEmpty                      0x08002c57   Thumb Code    20  aisdigitalinterface.o(.text)
    AISDI_SenEnque                           0x08002c6b   Thumb Code    50  aisdigitalinterface.o(.text)
    AISDI_SenDeque                           0x08002c9d   Thumb Code    50  aisdigitalinterface.o(.text)
    AISDI_BuildVDM                           0x08002ccf   Thumb Code  1410  aisdigitalinterface.o(.text)
    AISDI_BuildVDO                           0x08003251   Thumb Code  1396  aisdigitalinterface.o(.text)
    AISDI_BuildABK                           0x080037c5   Thumb Code   196  aisdigitalinterface.o(.text)
    AISDI_SenPrint                           0x08003889   Thumb Code    24  aisdigitalinterface.o(.text)
    AISDI_SentencePrint                      0x080038a1   Thumb Code     4  aisdigitalinterface.o(.text)
    AISDI_SentenceParse                      0x080038a5   Thumb Code  1296  aisdigitalinterface.o(.text)
    AISDI_ABMIsValid                         0x08003db5   Thumb Code     6  aisdigitalinterface.o(.text)
    AISDI_BBMIsValid                         0x08003dbb   Thumb Code     6  aisdigitalinterface.o(.text)
    AISDI_ModuleInit                         0x08003dc1   Thumb Code    34  aisdigitalinterface.o(.text)
    AISMSG_BuildMsg1                         0x08003e1d   Thumb Code   282  aismsgmodule.o(.text)
    AISMSG_BuildMsg2                         0x08003f37   Thumb Code   284  aismsgmodule.o(.text)
    AISMSG_BuildMsg3                         0x08004053   Thumb Code   262  aismsgmodule.o(.text)
    AISMSG_BuildMsg4                         0x08004159   Thumb Code   292  aismsgmodule.o(.text)
    AISMSG_BuildMsg5                         0x0800427d   Thumb Code   318  aismsgmodule.o(.text)
    AISMSG_BuildMsg6                         0x080043bb   Thumb Code   236  aismsgmodule.o(.text)
    AISMSG_BuildMsg7                         0x080044a7   Thumb Code   314  aismsgmodule.o(.text)
    AISMSG_BuildMsg8                         0x080045e1   Thumb Code   212  aismsgmodule.o(.text)
    AISMSG_BuildMsg9                         0x080046b5   Thumb Code   336  aismsgmodule.o(.text)
    AISMSG_BuildMsg10                        0x08004805   Thumb Code   124  aismsgmodule.o(.text)
    AISMSG_BuildMsg11                        0x08004881   Thumb Code   286  aismsgmodule.o(.text)
    AISMSG_BuildMsg12                        0x0800499f   Thumb Code   202  aismsgmodule.o(.text)
    AISMSG_BuildMsg13                        0x08004a69   Thumb Code   322  aismsgmodule.o(.text)
    AISMSG_BuildMsg14                        0x08004bab   Thumb Code   170  aismsgmodule.o(.text)
    AISMSG_BuildMsg15                        0x08004c55   Thumb Code   384  aismsgmodule.o(.text)
    AISMSG_BuildMsg16                        0x08004dd5   Thumb Code   210  aismsgmodule.o(.text)
    AISMSG_BuildMsg17                        0x08004ea7   Thumb Code   258  aismsgmodule.o(.text)
    AISMSG_BuildMsg18                        0x08004fa9   Thumb Code   370  aismsgmodule.o(.text)
    AISMSG_BuildMsg19                        0x0800511b   Thumb Code   310  aismsgmodule.o(.text)
    AISMSG_BuildMsg20                        0x08005251   Thumb Code   558  aismsgmodule.o(.text)
    AISMSG_BuildMsg21                        0x0800547f   Thumb Code   364  aismsgmodule.o(.text)
    AISMSG_BuildMsg22                        0x080055eb   Thumb Code   238  aismsgmodule.o(.text)
    AISMSG_BuildMsg23                        0x080056d9   Thumb Code   214  aismsgmodule.o(.text)
    AISMSG_BuildMsg24A                       0x080057af   Thumb Code   126  aismsgmodule.o(.text)
    AISMSG_BuildMsg24B                       0x0800582d   Thumb Code   236  aismsgmodule.o(.text)
    AISMSG_BuildMsg25                        0x08005919   Thumb Code   408  aismsgmodule.o(.text)
    AISMSG_BuildMsg26                        0x08005ab1   Thumb Code   616  aismsgmodule.o(.text)
    AISMSG_BuildMsg27                        0x08005d19   Thumb Code   182  aismsgmodule.o(.text)
    AISMSG_ParseMsgType                      0x08007975   Thumb Code   244  aismsgmodule.o(.text)
    AISMSG_ParseMsg                          0x08007a69   Thumb Code   356  aismsgmodule.o(.text)
    AISMSG_ConvertToMsgType                  0x08007bcd   Thumb Code   220  aismsgmodule.o(.text)
    AISMSG_ConvertToMsgID                    0x08007ca9   Thumb Code   144  aismsgmodule.o(.text)
    SLOT_UpdateSlotMapIndexFrame             0x08007ee9   Thumb Code   126  slot.o(.text)
    SetSlotState                             0x08007f67   Thumb Code   104  slot.o(.text)
    GetSlotState                             0x08007fcf   Thumb Code    92  slot.o(.text)
    SelectCandidateSlot                      0x0800802b   Thumb Code   318  slot.o(.text)
    SelectCandidateSlotFrame                 0x08008169   Thumb Code    32  slot.o(.text)
    CalcSlotOffset                           0x08008189   Thumb Code    16  slot.o(.text)
    CalcFrameNum                             0x08008199   Thumb Code    20  slot.o(.text)
    CalcSlotNum                              0x080081ad   Thumb Code    26  slot.o(.text)
    CalcSlotSum                              0x080081c7   Thumb Code    14  slot.o(.text)
    IsSlotValid                              0x080081d5   Thumb Code    16  slot.o(.text)
    SLOT_ModuleInit                          0x080081e5   Thumb Code    86  slot.o(.text)
    SOTDMA_CalcSelectIntervalOffset          0x08008245   Thumb Code    22  tdma.o(.text)
    SOTDMA_SetRrDual                         0x080083c3   Thumb Code    26  tdma.o(.text)
    SOTDMA_IsRrChanged                       0x080084c1   Thumb Code    40  tdma.o(.text)
    SOTDMA_SetNssDual                        0x080084e9   Thumb Code    92  tdma.o(.text)
    SOTDMA_SetSlotState                      0x080085ef   Thumb Code   102  tdma.o(.text)
    TDMA_GetSyncState                        0x08008655   Thumb Code     4  tdma.o(.text)
    ITDMA_CalcCommStateKeepFlag              0x08008695   Thumb Code     8  tdma.o(.text)
    ITDMA_CalcCommStateNumberOfSlots         0x0800869d   Thumb Code    32  tdma.o(.text)
    ITDMA_CalcCommStateSlotIncrement         0x080086bd   Thumb Code    14  tdma.o(.text)
    ITDMA_CalcSelectIntervalOffset           0x08008e39   Thumb Code    22  tdma.o(.text)
    ITDMA_CalcSlotOffset                     0x08008e81   Thumb Code    26  tdma.o(.text)
    ITDMA_CalcSlotQuantity                   0x08008e9b   Thumb Code    24  tdma.o(.text)
    ITDMA_CalcSlotKeep                       0x08008eb3   Thumb Code     8  tdma.o(.text)
    ITDMA_SetSlotState                       0x08009017   Thumb Code   118  tdma.o(.text)
    TDMA_InstReportIntervalSample            0x080090c9   Thumb Code     8  tdma.o(.text)
    TDMA_InstSchedule                        0x08009395   Thumb Code     4  tdma.o(.text)
    TDMA_SetSlotState                        0x08009399   Thumb Code    68  tdma.o(.text)
    TDMA_ModuleInit                          0x080093dd   Thumb Code    24  tdma.o(.text)
    DEVINFO_InstResetGpsOutputCnt            0x080096e9   Thumb Code    24  deviceinfo.o(.text)
    DEVINFO_ModuleInit                       0x08009701   Thumb Code   102  deviceinfo.o(.text)
    AISINFO_InstRecStationQuantityIncrease   0x08009775   Thumb Code    24  aisinfo.o(.text)
    AISINFO_InstRecStationQuantityUpdate     0x0800978d   Thumb Code    44  aisinfo.o(.text)
    AISINFO_InstRecStationGetQuantity        0x080097b9   Thumb Code     6  aisinfo.o(.text)
    AISINFO_ModuleInit                       0x080097bf   Thumb Code    96  aisinfo.o(.text)
    MSGMAN_MsgTxTaskTxCfg                    0x080098ed   Thumb Code    52  msgmanager.o(.text)
    MSGMAN_MsgTxTaskNextTxCfg                0x08009921   Thumb Code   128  msgmanager.o(.text)
    MSGMAN_MsgTxTaskIsTxTimExpired           0x080099a1   Thumb Code    72  msgmanager.o(.text)
    MSGMAN_MsgTxTaskIsSendTimExpired         0x080099e9   Thumb Code    44  msgmanager.o(.text)
    MSGMAN_TxMsgListInsert                   0x08009b51   Thumb Code     6  msgmanager.o(.text)
    SendMsg5                                 0x08009b57   Thumb Code   124  msgmanager.o(.text)
    SendMsg24B                               0x08009bd3   Thumb Code   128  msgmanager.o(.text)
    SendMsg24A                               0x08009c53   Thumb Code   128  msgmanager.o(.text)
    SendMsg19                                0x08009cd3   Thumb Code   226  msgmanager.o(.text)
    MSGMAN_TxMsgListIsEmpty                  0x08009fcf   Thumb Code     6  msgmanager.o(.text)
    MSGMAN_RxMsgListIsEmpty                  0x08009fd5   Thumb Code     6  msgmanager.o(.text)
    MSGMAN_TxMsgListIsFull                   0x08009fdb   Thumb Code     6  msgmanager.o(.text)
    MSGMAN_RxMsgListIsFull                   0x08009fe1   Thumb Code     6  msgmanager.o(.text)
    MSGMAN_RxMsgListInsert                   0x08009fe7   Thumb Code     6  msgmanager.o(.text)
    MSGMAN_TxMsgListGetElem                  0x08009fed   Thumb Code     6  msgmanager.o(.text)
    MSGMAN_RxMsgListGetElem                  0x08009ff3   Thumb Code     6  msgmanager.o(.text)
    SendMsg14                                0x0800a063   Thumb Code   132  msgmanager.o(.text)
    SendMsg8                                 0x0800a0e7   Thumb Code   202  msgmanager.o(.text)
    SendMsg12                                0x0800a1b1   Thumb Code   128  msgmanager.o(.text)
    SendMsg6                                 0x0800a231   Thumb Code   132  msgmanager.o(.text)
    SendMsg13                                0x0800a2b5   Thumb Code   142  msgmanager.o(.text)
    SendMsg7                                 0x0800a343   Thumb Code   140  msgmanager.o(.text)
    SendMsg1                                 0x0800a5d5   Thumb Code   132  msgmanager.o(.text)
    SendMsg3                                 0x0800a659   Thumb Code   136  msgmanager.o(.text)
    SendMsg6Test                             0x0800a6e1   Thumb Code   132  msgmanager.o(.text)
    SendMsg18                                0x0800a765   Thumb Code   164  msgmanager.o(.text)
    SendMsg18Test                            0x0800a809   Thumb Code   154  msgmanager.o(.text)
    MSGMAN_MsgTxProcess                      0x0800a8a3   Thumb Code    22  msgmanager.o(.text)
    MSGMAN_MsgRxProcess                      0x0800a8b9   Thumb Code   606  msgmanager.o(.text)
    MSGMAN_ModuleInit                        0x0800ab17   Thumb Code    58  msgmanager.o(.text)
    AisMain                                  0x0800abf9   Thumb Code    38  aisptlmain.o(.text)
    InitTimAdjust                            0x0800ac21   Thumb Code    66  adjust.o(.text)
    ResetTimAdjust                           0x0800ac63   Thumb Code    34  adjust.o(.text)
    ResetTimAdjustCtrlState                  0x0800ac85   Thumb Code     8  adjust.o(.text)
    RtcClockChoice                           0x0800ac8d   Thumb Code   102  adjust.o(.text)
    IsRtcClockSourceLSE                      0x0800acf3   Thumb Code    14  adjust.o(.text)
    TimAdjustProcess                         0x0800ad01   Thumb Code  1572  adjust.o(.text)
    SetAdjustCalcNow                         0x0800b325   Thumb Code     8  adjust.o(.text)
    GetAdjustSleepState                      0x0800b32d   Thumb Code    14  adjust.o(.text)
    HexToAscII                               0x0800b341   Thumb Code    16  common.o(.text)
    DataToAscII                              0x0800b351   Thumb Code    72  common.o(.text)
    UartMsgCheckSum                          0x0800b399   Thumb Code    24  common.o(.text)
    EEpromChkSum                             0x0800b3b1   Thumb Code    28  common.o(.text)
    ChkSum                                   0x0800b3cd   Thumb Code    32  common.o(.text)
    AIS_Cal_CRC16                            0x0800b3ed   Thumb Code    68  common.o(.text)
    ByteToIntDataCopy                        0x0800b431   Thumb Code    22  common.o(.text)
    Delay_us                                 0x0800b447   Thumb Code    20  common.o(.text)
    Delay_ms                                 0x0800b45b   Thumb Code    28  common.o(.text)
    GetMaskBitNum8                           0x0800b477   Thumb Code    24  common.o(.text)
    GetMaskBitNum16                          0x0800b48f   Thumb Code    24  common.o(.text)
    GetMaskBitNum32                          0x0800b4a7   Thumb Code    24  common.o(.text)
    GetWordFieldValue                        0x0800b4bf   Thumb Code    20  common.o(.text)
    SetWordFieldValue                        0x0800b4d3   Thumb Code    26  common.o(.text)
    Random                                   0x0800b4ed   Thumb Code    48  common.o(.text)
    TIME_DateTimeStructInit                  0x0800b51d   Thumb Code    20  common.o(.text)
    TIME_DateTimeStructCopy                  0x0800b531   Thumb Code    26  common.o(.text)
    TIME_IsDateValid                         0x0800b54b   Thumb Code   126  common.o(.text)
    TIME_IsDateTimeValid                     0x0800b5c9   Thumb Code    56  common.o(.text)
    TIME_DateTimeOffset28Days                0x0800b601   Thumb Code   488  common.o(.text)
    IniGpsCtrlMsgTestStru                    0x0800b7e9   Thumb Code    18  gpsctrl.o(.text)
    IniGpsMsgStru                            0x0800b7fb   Thumb Code   188  gpsctrl.o(.text)
    ResetGpsMsgStru                          0x0800b8b7   Thumb Code    80  gpsctrl.o(.text)
    InitGpsSynStru                           0x0800b907   Thumb Code    50  gpsctrl.o(.text)
    IniGpsCtrlStru                           0x0800b939   Thumb Code   132  gpsctrl.o(.text)
    ResetGpsCtrlStru                         0x0800b9bd   Thumb Code    40  gpsctrl.o(.text)
    IniGpsPara                               0x0800b9e5   Thumb Code    50  gpsctrl.o(.text)
    SetGpsPositionSampleNewFlg               0x0800ba17   Thumb Code    12  gpsctrl.o(.text)
    DealGpsMsg                               0x0800ba23   Thumb Code  1798  gpsctrl.o(.text)
    GpsOutputProcess                         0x0800c129   Thumb Code   442  gpsctrl.o(.text)
    GpsMsgProcess                            0x0800c2e3   Thumb Code    30  gpsctrl.o(.text)
    IsGpsFix                                 0x0800c301   Thumb Code    18  gpsctrl.o(.text)
    GetGpsFixSta                             0x0800c313   Thumb Code   158  gpsctrl.o(.text)
    ResetGpsNormalFixState                   0x0800c3b1   Thumb Code    12  gpsctrl.o(.text)
    SetGpsPowerupFixState                    0x0800c3bd   Thumb Code    12  gpsctrl.o(.text)
    GetGpsPowerupFixState                    0x0800c3c9   Thumb Code    10  gpsctrl.o(.text)
    SetGpsNormalFixState                     0x0800c3d3   Thumb Code    12  gpsctrl.o(.text)
    SlotSynClac                              0x0800c3df   Thumb Code   280  gpsctrl.o(.text)
    GpsCtrlProcess                           0x0800c4f7   Thumb Code  1258  gpsctrl.o(.text)
    GpsPowerDown                             0x0800c9e1   Thumb Code    20  gpsctrl.o(.text)
    GpsCtrlProcess_MsgTest                   0x0800c9f5   Thumb Code   230  gpsctrl.o(.text)
    GetMsgTestSendFlg                        0x0800cadb   Thumb Code    18  gpsctrl.o(.text)
    ResetGpsSynSta                           0x0800caed   Thumb Code    10  gpsctrl.o(.text)
    GpsPowerUp                               0x0800caf7   Thumb Code    42  gpsctrl.o(.text)
    GpsWakeUp                                0x0800cb21   Thumb Code    34  gpsctrl.o(.text)
    GetGpsSleepSta                           0x0800cb43   Thumb Code    18  gpsctrl.o(.text)
    GetGpsSynSta                             0x0800cb55   Thumb Code    22  gpsctrl.o(.text)
    GetGpsNormalFixStateRst                  0x0800cb6b   Thumb Code    24  gpsctrl.o(.text)
    GetGpsNormalFixState                     0x0800cb83   Thumb Code     8  gpsctrl.o(.text)
    IsGpsPowerupProtect                      0x0800cb8b   Thumb Code    18  gpsctrl.o(.text)
    SetGpsOnTimSlot                          0x0800cb9d   Thumb Code   356  gpsctrl.o(.text)
    SetGpsOnTimFrame                         0x0800cd01   Thumb Code    12  gpsctrl.o(.text)
    GetGpsOnTim                              0x0800cd0d   Thumb Code    20  gpsctrl.o(.text)
    SetGpsOnTimEn                            0x0800cd21   Thumb Code    10  gpsctrl.o(.text)
    ResetGpsOnTimEn                          0x0800cd2b   Thumb Code    10  gpsctrl.o(.text)
    GetGpsOnTimEn                            0x0800cd35   Thumb Code     8  gpsctrl.o(.text)
    GetGpsOnTimEnRst                         0x0800cd3d   Thumb Code    24  gpsctrl.o(.text)
    SetGpsOffTimSlot                         0x0800cd55   Thumb Code    12  gpsctrl.o(.text)
    SetGpsOffTimFrame                        0x0800cd61   Thumb Code    12  gpsctrl.o(.text)
    GetGpsOffTim                             0x0800cd6d   Thumb Code    20  gpsctrl.o(.text)
    GetGpsWakeupSta                          0x0800cd81   Thumb Code    24  gpsctrl.o(.text)
    GetGpsPowerSta                           0x0800cd99   Thumb Code    16  gpsctrl.o(.text)
    ResetGps5minLngOpenEn                    0x0800cda9   Thumb Code    10  gpsctrl.o(.text)
    GetGps5minLngOpenEn                      0x0800cdb3   Thumb Code     8  gpsctrl.o(.text)
    SetGpsUnfix1hPeriodTimFrame              0x0800cdbb   Thumb Code    18  gpsctrl.o(.text)
    SetGpsUnfix1hPeriodTimSlot               0x0800cdcd   Thumb Code    16  gpsctrl.o(.text)
    GetGpsUnfix1hPeriodTim                   0x0800cddd   Thumb Code    20  gpsctrl.o(.text)
    SetGpsUnfixLonOpenFlg                    0x0800cdf1   Thumb Code    10  gpsctrl.o(.text)
    ResetGpsUnfixLonOpenFlg                  0x0800cdfb   Thumb Code    10  gpsctrl.o(.text)
    GetGpsUnfixLonOpenFlg                    0x0800ce05   Thumb Code     8  gpsctrl.o(.text)
    SetGpsUnfix1hLngOpenFlg                  0x0800ce0d   Thumb Code    10  gpsctrl.o(.text)
    ResetGpsUnfix1hLngOpenFlg                0x0800ce17   Thumb Code    10  gpsctrl.o(.text)
    GetGpsUnfix1hLngOpenFlg                  0x0800ce21   Thumb Code     8  gpsctrl.o(.text)
    SetGpsUnfixBey1hLngOpenFlg               0x0800ce29   Thumb Code    10  gpsctrl.o(.text)
    ResetGpsUnfixBey1hLngOpenFlg             0x0800ce33   Thumb Code    10  gpsctrl.o(.text)
    GetGpsUnfixBey1hLngOpenFlg               0x0800ce3d   Thumb Code     8  gpsctrl.o(.text)
    IsGpsOffTimeout                          0x0800ce45   Thumb Code    24  gpsctrl.o(.text)
    IsGpsOnTimeout                           0x0800ce5d   Thumb Code    24  gpsctrl.o(.text)
    IsGpsUnfix1hPeriodTimeout                0x0800ce75   Thumb Code    24  gpsctrl.o(.text)
    GetGpsOnEnRst                            0x0800ce8d   Thumb Code    24  gpsctrl.o(.text)
    GetGpsOnEn                               0x0800cea5   Thumb Code    14  gpsctrl.o(.text)
    SetGpsOnEn                               0x0800ceb3   Thumb Code    10  gpsctrl.o(.text)
    ResetGpsOnEn                             0x0800cebd   Thumb Code    10  gpsctrl.o(.text)
    SetGpsOffPositionSampleEn                0x0800cec7   Thumb Code    10  gpsctrl.o(.text)
    ResetGpsOffPositionSampleEn              0x0800ced1   Thumb Code    10  gpsctrl.o(.text)
    GetGpsOffPositionSampleEn                0x0800cedb   Thumb Code     8  gpsctrl.o(.text)
    ResetGpsPositionSampleNewFlg             0x0800cee3   Thumb Code    10  gpsctrl.o(.text)
    GetGpsPositionSampleNewFlgRst            0x0800ceed   Thumb Code    24  gpsctrl.o(.text)
    GetGpsSaveFlgRst                         0x0800cf05   Thumb Code    24  gpsctrl.o(.text)
    GetGpsSaveFlg                            0x0800cf1d   Thumb Code    14  gpsctrl.o(.text)
    SetGpsSaveFlg                            0x0800cf2b   Thumb Code    10  gpsctrl.o(.text)
    ResetGpsSaveFlg                          0x0800cf35   Thumb Code    10  gpsctrl.o(.text)
    GetGpsPPSGenFlag                         0x0800cf3f   Thumb Code    10  gpsctrl.o(.text)
    GetGpsMsgGenFlag                         0x0800cf49   Thumb Code    10  gpsctrl.o(.text)
    GetGpsCtrlState                          0x0800cf53   Thumb Code     8  gpsctrl.o(.text)
    IsCoordinateOK                           0x0800cf5b   Thumb Code    20  gpsctrl.o(.text)
    IsPdopOK                                 0x0800cf6f   Thumb Code    22  gpsctrl.o(.text)
    GPS_GpsSelfCheckStructInit               0x0800cf85   Thumb Code    42  gpsctrl.o(.text)
    GPS_GpsSelfCheckReset                    0x0800cfaf   Thumb Code    32  gpsctrl.o(.text)
    GPS_SelfCheck                            0x0800cfcf   Thumb Code   290  gpsctrl.o(.text)
    Parameter_Init                           0x0800d0f1   Thumb Code   108  initial.o(.text)
    InitaLEDPara                             0x0800d165   Thumb Code   130  ledctrl.o(.text)
    InitaLEDCtrlPara                         0x0800d1e7   Thumb Code    94  ledctrl.o(.text)
    LEDAllDown                               0x0800d245   Thumb Code    38  ledctrl.o(.text)
    LEDInit                                  0x0800d26b   Thumb Code  1126  ledctrl.o(.text)
    LEDAllLight                              0x0800d6d1   Thumb Code    38  ledctrl.o(.text)
    LedCtrl                                  0x0800d6f7   Thumb Code   108  ledctrl.o(.text)
    LEDCtrlProcess                           0x0800d763   Thumb Code    58  ledctrl.o(.text)
    LEDReadFileProcess                       0x0800d79d   Thumb Code    34  ledctrl.o(.text)
    main                                     0x0800d7cd   Thumb Code   246  main.o(.text)
    InitPowerUppara                          0x0800d8e5   Thumb Code     2  powerup.o(.text)
    PowerUpLedCtrl                           0x0800d8e7   Thumb Code    56  powerup.o(.text)
    InitBKP_DRPara                           0x0800d91f   Thumb Code     2  powerup.o(.text)
    PowerUpProcess                           0x0800d921   Thumb Code  1262  powerup.o(.text)
    CalcuSleepSlots_Wakeup                   0x0800de0f   Thumb Code    54  powerup.o(.text)
    CalcuSleepPhases_Wakeup                  0x0800de45   Thumb Code    16  powerup.o(.text)
    IniSleepCtrlPara                         0x0800defd   Thumb Code    56  sleepctrl.o(.text)
    SaveBKP_DRPara                           0x0800df35   Thumb Code     2  sleepctrl.o(.text)
    GetMcuWakeupTim                          0x0800df37   Thumb Code    20  sleepctrl.o(.text)
    CalcuSleepPhases_Sleep                   0x0800df4b   Thumb Code    64  sleepctrl.o(.text)
    CalcuSleepSpan                           0x0800df8b   Thumb Code    86  sleepctrl.o(.text)
    CalcuSleepSlots_Sleep                    0x0800dfe1   Thumb Code    50  sleepctrl.o(.text)
    IsMcuWakeupTimeout                       0x0800e013   Thumb Code    24  sleepctrl.o(.text)
    SetMcuWakeupSlot                         0x0800e02b   Thumb Code    16  sleepctrl.o(.text)
    SetMcuWakeupFrame                        0x0800e03b   Thumb Code    18  sleepctrl.o(.text)
    SetUsartFlg                              0x0800e04d   Thumb Code    20  sleepctrl.o(.text)
    ResetUsartFlg                            0x0800e061   Thumb Code    10  sleepctrl.o(.text)
    GetUsartFlg                              0x0800e06b   Thumb Code     8  sleepctrl.o(.text)
    GetUsartFlgRst                           0x0800e073   Thumb Code    24  sleepctrl.o(.text)
    TEST_TxTestLedInit                       0x0800e09d   Thumb Code    38  testing.o(.text)
    TEST_TxTestInit                          0x0800e0c3   Thumb Code    54  testing.o(.text)
    TEST_TxTestStop                          0x0800e0f9   Thumb Code    46  testing.o(.text)
    InitRxTestStruct                         0x0800e127   Thumb Code     6  testing.o(.text)
    IniTestingPara                           0x0800e12d   Thumb Code    42  testing.o(.text)
    IniTesting                               0x0800e157   Thumb Code    14  testing.o(.text)
    ResetTesting                             0x0800e165   Thumb Code    22  testing.o(.text)
    Testing_LEDCtrl                          0x0800e17b   Thumb Code    80  testing.o(.text)
    Testing_SetTestType                      0x0800e1cb   Thumb Code    56  testing.o(.text)
    GMSKTest                                 0x0800e203   Thumb Code     2  testing.o(.text)
    Testing_ModTest                          0x0800e205   Thumb Code   188  testing.o(.text)
    Testing_TestMain                         0x0800e2c1   Thumb Code    86  testing.o(.text)
    Testing                                  0x0800e317   Thumb Code    18  testing.o(.text)
    GetMsgTestCtrlWakeupFlag                 0x0800e329   Thumb Code    22  testing.o(.text)
    BatteryTestCtrlLowFreq                   0x0800e33f   Thumb Code    20  testing.o(.text)
    InitBatteryTest                          0x0800e353   Thumb Code    34  testing.o(.text)
    BatteryTestSendMsg                       0x0800e375   Thumb Code    24  testing.o(.text)
    BattertTestClock                         0x0800e38d   Thumb Code    62  testing.o(.text)
    SetBatteryTestTimer                      0x0800e3cb   Thumb Code    10  testing.o(.text)
    GetBattertTestTick                       0x0800e3d5   Thumb Code     8  testing.o(.text)
    InitMsgTestCtrl                          0x0800e3dd   Thumb Code    26  testing.o(.text)
    InitSleepTestCtrl                        0x0800e3f7   Thumb Code    16  testing.o(.text)
    SleepTestCtrl                            0x0800e407   Thumb Code   128  testing.o(.text)
    InitMsgTestPara                          0x0800e487   Thumb Code     8  testing.o(.text)
    InitMsgTest                              0x0800e48f   Thumb Code     2  testing.o(.text)
    DigDealMain_MsgTest                      0x0800e491   Thumb Code     2  testing.o(.text)
    IniUartMsgPara                           0x0800e50d   Thumb Code     2  uartmsg.o(.text)
    GetString                                0x0800e50f   Thumb Code   104  uartmsg.o(.text)
    IsAscStringOk                            0x0800e577   Thumb Code    38  uartmsg.o(.text)
    IsHexStringOk                            0x0800e59d   Thumb Code    52  uartmsg.o(.text)
    IsVersionString                          0x0800e5d1   Thumb Code    44  uartmsg.o(.text)
    ConvertBcdToByte                         0x0800e5fd   Thumb Code    84  uartmsg.o(.text)
    ConvertByteToBcd                         0x0800e651   Thumb Code    54  uartmsg.o(.text)
    GetSegment                               0x0800e687   Thumb Code    26  uartmsg.o(.text)
    SartMmsiFormCheck                        0x0800e6a1   Thumb Code    40  uartmsg.o(.text)
    IsLatFormat                              0x0800e6c9   Thumb Code   224  uartmsg.o(.text)
    IsLonFormat                              0x0800e7a9   Thumb Code   240  uartmsg.o(.text)
    ToLatFormat                              0x0800e899   Thumb Code   176  uartmsg.o(.text)
    ToLonFormat                              0x0800e949   Thumb Code   172  uartmsg.o(.text)
    UartMsgProcess                           0x0800e9f5   Thumb Code  8920  uartmsg.o(.text)
    UBX1_UBXPrtCommInstanceInit              0x08010d4d   Thumb Code     4  ubloxprotocol.o(.text)
    UBX1_UBXPrtCommInstanceReset             0x08010d51   Thumb Code    96  ubloxprotocol.o(.text)
    UBX1_UBXPrtMsgSendBuff                   0x08010e03   Thumb Code     8  ubloxprotocol.o(.text)
    UBX1_SetSendFlag                         0x08010e0b   Thumb Code    10  ubloxprotocol.o(.text)
    UBX1_ResetSendFlag                       0x08010e15   Thumb Code    10  ubloxprotocol.o(.text)
    UBX_UartTxUbxMsg                         0x08010e1f   Thumb Code    16  ubloxprotocol.o(.text)
    UBX_UartMsgCheckSum                      0x08010e2f   Thumb Code    34  ubloxprotocol.o(.text)
    UBX_UartResponseUbxMsg                   0x08010e51   Thumb Code    80  ubloxprotocol.o(.text)
    UBX1_UBXPrtCommCtrlProcess               0x08010fdf   Thumb Code     4  ubloxprotocol.o(.text)
    UBX_UartRxProcess                        0x08010fe3   Thumb Code    12  ubloxprotocol.o(.text)
    UBX_GetCOMMMess                          0x08010fef   Thumb Code    16  ubloxprotocol.o(.text)
    UBX1_GpsStartupConfig                    0x08010fff   Thumb Code    80  ubloxprotocol.o(.text)
    UBX1_GpsIdleConfig                       0x0801104f   Thumb Code     6  ubloxprotocol.o(.text)
    UBX1_GpsNormalConfig                     0x080110e1   Thumb Code     4  ubloxprotocol.o(.text)
    UBX1_GetSendRequireFlag                  0x080110e5   Thumb Code     8  ubloxprotocol.o(.text)
    UBX1_GetGpsCommSleepSta                  0x080110ed   Thumb Code    16  ubloxprotocol.o(.text)
    UBX_ModuleInit                           0x080110fd   Thumb Code    16  ubloxprotocol.o(.text)
    TRCTRL_InstTransceiverTxCtrlStructInit   0x0801139f   Thumb Code     4  transceiverctrl.o(.text)
    TRCTRL_InstTransceiverTestStructInit     0x080113c7   Thumb Code    18  transceiverctrl.o(.text)
    TRCTRL_InstTxSetTxDoneFlg                0x08011573   Thumb Code     6  transceiverctrl.o(.text)
    TRCTRL_InstTxGetTxFlg                    0x08011579   Thumb Code     6  transceiverctrl.o(.text)
    TRCTRL_InstTxTestGetSignalBit            0x0801157f   Thumb Code    20  transceiverctrl.o(.text)
    TRCTRL_InstTxGetSignalBit                0x08011593   Thumb Code     4  transceiverctrl.o(.text)
    TRCTRL_InstGetTxTestFlg                  0x08011597   Thumb Code    22  transceiverctrl.o(.text)
    TRCTRL_InstSetTxTestFlg                  0x080115ad   Thumb Code    20  transceiverctrl.o(.text)
    TRCTRL_InstTxTestSetTxSignalType         0x080115c1   Thumb Code    18  transceiverctrl.o(.text)
    TRCTRL_InstTxTestSetTxChannel            0x080115d3   Thumb Code    18  transceiverctrl.o(.text)
    TRCTRL_TxTestCtrl                        0x080115e5   Thumb Code   206  transceiverctrl.o(.text)
    TRCTRL_InstTxTestCtrl                    0x080116b3   Thumb Code    16  transceiverctrl.o(.text)
    TRCTRL_InstTxTestIsTx                    0x080116c3   Thumb Code    22  transceiverctrl.o(.text)
    TRCTRL_TransmitProcess                   0x080116d9   Thumb Code   472  transceiverctrl.o(.text)
    TRCTRL_TxDataClockISR                    0x080118b1   Thumb Code   194  transceiverctrl.o(.text)
    TRCTRL_ModuleInit                        0x08011973   Thumb Code    24  transceiverctrl.o(.text)
    SLFCHK_InstSelfCheckStructInit           0x08011ab5   Thumb Code     6  selfcheck.o(.text)
    SLFCHK_GetBitNum32                       0x08011abb   Thumb Code    24  selfcheck.o(.text)
    SLFCHK_InstGetCheckResultValue           0x08011ad3   Thumb Code    18  selfcheck.o(.text)
    SLFCHK_InstCfgCheckSelect                0x08011ae5   Thumb Code     6  selfcheck.o(.text)
    SLFCHK_InstSetCheckSelect                0x08011aeb   Thumb Code    10  selfcheck.o(.text)
    SLFCHK_InstResetCheckSelect              0x08011af5   Thumb Code    10  selfcheck.o(.text)
    SLFCHK_InstSetCheckResultValue           0x08011aff   Thumb Code    10  selfcheck.o(.text)
    SLFCHK_InstResetCheckResultValue         0x08011b09   Thumb Code    10  selfcheck.o(.text)
    SLFCHK_InstSelfCheckStart                0x08011b13   Thumb Code     8  selfcheck.o(.text)
    SLFCHK_InstSelfCheckProcess              0x080123bd   Thumb Code     8  selfcheck.o(.text)
    SLFCHK_GetCheckSelectValue               0x080123c5   Thumb Code     8  selfcheck.o(.text)
    RFL_RfLinkSelfCheckStructInit            0x0801240d   Thumb Code    24  rflinkselfcheck.o(.text)
    RFL_RfLinkSelfCheckReset                 0x08012425   Thumb Code    10  rflinkselfcheck.o(.text)
    RFL_SelfCheck                            0x0801242f   Thumb Code   216  rflinkselfcheck.o(.text)
    TASK_TaskTimStructInit                   0x0801252d   Thumb Code    18  taskmanager.o(.text)
    TASK_TaskTimEnable                       0x0801253f   Thumb Code    26  taskmanager.o(.text)
    TASK_TaskTimDisable                      0x08012559   Thumb Code     6  taskmanager.o(.text)
    TASK_PeriodTaskIsTimeout                 0x0801255f   Thumb Code    54  taskmanager.o(.text)
    TASK_SingleTaskIsTimeout                 0x08012595   Thumb Code    56  taskmanager.o(.text)
    TASK_TaskProcess                         0x080125cd   Thumb Code   226  taskmanager.o(.text)
    TASK_ModuleInit                          0x080126af   Thumb Code    28  taskmanager.o(.text)
    FLASH_ReadHalfWord                       0x08012739   Thumb Code     4  flashctrl.o(.text)
    U8ToU16                                  0x0801273d   Thumb Code    46  flashctrl.o(.text)
    FlashWrite                               0x0801276b   Thumb Code   352  flashctrl.o(.text)
    STM32_FLASH_DefaultRead                  0x080128cb   Thumb Code    76  flashctrl.o(.text)
    U16ToU8                                  0x08012917   Thumb Code    40  flashctrl.o(.text)
    FlashRead                                0x0801293f   Thumb Code   308  flashctrl.o(.text)
    Decode                                   0x08012ab9   Thumb Code    28  encrypt.o(.text)
    ReadDeviceID                             0x08012ad5   Thumb Code   228  encrypt.o(.text)
    FlashReadCry                             0x08012bb9   Thumb Code    32  encrypt.o(.text)
    ReadCry                                  0x08012bd9   Thumb Code    88  encrypt.o(.text)
    FlashWriteCry                            0x08012c31   Thumb Code   166  encrypt.o(.text)
    WriteCry                                 0x08012cd7   Thumb Code    84  encrypt.o(.text)
    GPIO5_Configuration                      0x08012d35   Thumb Code    30  24c02.o(.text)
    GPIO6_Configuration                      0x08012d53   Thumb Code    30  24c02.o(.text)
    GPIO7_Configuration                      0x08012d71   Thumb Code    38  24c02.o(.text)
    I2C_EE_Init                              0x08012d97   Thumb Code    26  24c02.o(.text)
    I2C_delay                                0x08012db1   Thumb Code    12  24c02.o(.text)
    I2C_Start                                0x08012dbd   Thumb Code    54  24c02.o(.text)
    I2C_Stop                                 0x08012df3   Thumb Code    40  24c02.o(.text)
    I2C_Ack                                  0x08012e1b   Thumb Code    40  24c02.o(.text)
    I2C_NoAck                                0x08012e43   Thumb Code    40  24c02.o(.text)
    I2C_WaitAck                              0x08012e6b   Thumb Code    52  24c02.o(.text)
    I2C_SendByte                             0x08012e9f   Thumb Code    56  24c02.o(.text)
    I2C_ReceiveByte                          0x08012ed7   Thumb Code    62  24c02.o(.text)
    I2C_EE_BufferWrite                       0x08012f15   Thumb Code   138  24c02.o(.text)
    EraseAllData                             0x08012f9f   Thumb Code    50  24c02.o(.text)
    I2C_EE_BufferRead                        0x08012fd1   Thumb Code   102  24c02.o(.text)
    I2C_EE_BufferWriteSelfCheck              0x08013037   Thumb Code   146  24c02.o(.text)
    EEPROM_SelfCheck                         0x080130c9   Thumb Code   140  24c02.o(.text)
    EEPROM_EepromSelfCheckStructInit         0x08013155   Thumb Code    14  24c02.o(.text)
    ADC1_ValInit                             0x08013165   Thumb Code    26  adc.o(.text)
    ADC1_RegInit                             0x0801317f   Thumb Code    74  adc.o(.text)
    SetADC1_CalValue                         0x080131c9   Thumb Code     8  adc.o(.text)
    ADC1_Calibration                         0x080131d1   Thumb Code    52  adc.o(.text)
    DMA_PerInit                              0x08013205   Thumb Code    78  adc.o(.text)
    ADC1_PerInit                             0x08013253   Thumb Code   184  adc.o(.text)
    SetADC1_ConvFinishFlag                   0x0801330b   Thumb Code    10  adc.o(.text)
    DMA_ADC1_ISR                             0x08013315   Thumb Code    32  adc.o(.text)
    ADC1Start                                0x08013335   Thumb Code    10  adc.o(.text)
    ADC1IntProcess                           0x0801333f   Thumb Code    14  adc.o(.text)
    GetADC1_14_Val                           0x0801334d   Thumb Code    16  adc.o(.text)
    ResetADC1_ConvFinishFlag                 0x0801335d   Thumb Code    10  adc.o(.text)
    GetADC1_ConvFinishFlag                   0x08013367   Thumb Code     8  adc.o(.text)
    GetADC1_CalValue                         0x0801336f   Thumb Code    10  adc.o(.text)
    InitBKP_DRData                           0x08013389   Thumb Code    20  bkpregister.o(.text)
    SaveBKP_DRData                           0x0801339d   Thumb Code    36  bkpregister.o(.text)
    GetBKP_DRData                            0x080133c1   Thumb Code    36  bkpregister.o(.text)
    InitBKP_DR                               0x080133e5   Thumb Code    30  bkpregister.o(.text)
    IsRtcAlarm                               0x08013403   Thumb Code    32  bkpregister.o(.text)
    SetBKPDRDataBit                          0x08013423   Thumb Code    28  bkpregister.o(.text)
    GetBKPDRDataBit                          0x0801343f   Thumb Code    18  bkpregister.o(.text)
    SetDAC2Val                               0x08013459   Thumb Code    26  dac.o(.text)
    DAC_RegInit                              0x08013473   Thumb Code    70  dac.o(.text)
    SetDAC1Val                               0x080134b9   Thumb Code    26  dac.o(.text)
    GetTimCount                              0x080134d9   Thumb Code     6  gps.o(.text)
    GetRtcCount                              0x080134df   Thumb Code     6  gps.o(.text)
    GetTimCnt                                0x080134e5   Thumb Code     6  gps.o(.text)
    GetRtcCnt                                0x080134eb   Thumb Code     6  gps.o(.text)
    GetTimSaveState                          0x080134f1   Thumb Code    20  gps.o(.text)
    ResetTimSaveState                        0x08013505   Thumb Code     8  gps.o(.text)
    Usart2Interrupt                          0x0801350d   Thumb Code   106  gps.o(.text)
    Exti1_Int                                0x08013577   Thumb Code   118  gps.o(.text)
    InitGPSPower                             0x080135ed   Thumb Code    30  gps.o(.text)
    EXTI_Configuration                       0x0801360b   Thumb Code    64  gps.o(.text)
    InitUsart2                               0x0801364b   Thumb Code   136  gps.o(.text)
    SetGpsPulseEn                            0x080136d3   Thumb Code     8  gps.o(.text)
    ResetGpsPulseEn                          0x080136db   Thumb Code     8  gps.o(.text)
    InitPinPulse                             0x08013725   Thumb Code    14  led.o(.text)
    PinPulseDown                             0x08013733   Thumb Code    40  led.o(.text)
    InitiaLED                                0x0801375b   Thumb Code   130  led.o(.text)
    InitTestIO                               0x080137dd   Thumb Code    64  led.o(.text)
    InitPowerStru                            0x08013825   Thumb Code    10  power.o(.text)
    RF1_RFInstanceInit                       0x0801382f   Thumb Code    10  power.o(.text)
    RF1_GetRFAntState                        0x08013839   Thumb Code    14  power.o(.text)
    RF_PowerDown                             0x08013847   Thumb Code    22  power.o(.text)
    Initia_RFPower                           0x0801385d   Thumb Code   120  power.o(.text)
    RF_PowerOn                               0x080138d5   Thumb Code    24  power.o(.text)
    Exti15_10_Int_PowerKey                   0x080138ed   Thumb Code    30  power.o(.text)
    Exti15_10_Int_SosKey                     0x0801390b   Thumb Code    30  power.o(.text)
    GetSosLowPowerSta                        0x08013929   Thumb Code    20  power.o(.text)
    GetPowerLowPowerSta                      0x0801393d   Thumb Code    20  power.o(.text)
    InitPowerCtrl                            0x08013951   Thumb Code     2  power.o(.text)
    CalcRtcPhaseAdjust                       0x08013961   Thumb Code   184  rtc.o(.text)
    InitRtcPara                              0x08013a19   Thumb Code    28  rtc.o(.text)
    ResetRtcCount                            0x08013a35   Thumb Code    56  rtc.o(.text)
    RTCConfigurationPart1                    0x08013a6d   Thumb Code    74  rtc.o(.text)
    RTCConfigurationPart2                    0x08013ab7   Thumb Code   112  rtc.o(.text)
    RTCAlarmInt                              0x08013b27   Thumb Code  1672  rtc.o(.text)
    InitRtcParaStruct                        0x080141af   Thumb Code    18  rtc.o(.text)
    InitRtcTimPhaseStruct                    0x080141c1   Thumb Code    30  rtc.o(.text)
    RTC_SelfCheck                            0x080141df   Thumb Code    40  rtc.o(.text)
    RTC_RtcSelfCheckStructInit               0x08014207   Thumb Code    12  rtc.o(.text)
    RxTxSwitch                               0x08014259   Thumb Code    46  rxtx.o(.text)
    InitRxTx                                 0x08014287   Thumb Code    52  rxtx.o(.text)
    SPI2_Init                                0x080142c1   Thumb Code   152  spi.o(.text)
    SPI2_SendByte                            0x08014359   Thumb Code    48  spi.o(.text)
    GPIO_SPI1_ExchangeByte                   0x08014389   Thumb Code    96  spi.o(.text)
    GPIO_SPI2_ExchangeByte                   0x080143e9   Thumb Code    94  spi.o(.text)
    SetTimAdjust1                            0x08014455   Thumb Code     6  tim.o(.text)
    SetTimAdjust10                           0x0801445b   Thumb Code     6  tim.o(.text)
    SetTimAdjust100                          0x08014461   Thumb Code     6  tim.o(.text)
    TransPhaseAdjust                         0x08014467   Thumb Code    72  tim.o(.text)
    CalcTimPhaseAdjust                       0x080144af   Thumb Code   150  tim.o(.text)
    InitTim2Para                             0x08014545   Thumb Code    56  tim.o(.text)
    InitTim2Para_2                           0x0801457d   Thumb Code    12  tim.o(.text)
    InitTim2                                 0x08014589   Thumb Code   184  tim.o(.text)
    Tim2Interrupt                            0x08014641   Thumb Code  1050  tim.o(.text)
    GetPhaseNum                              0x08014a5b   Thumb Code     8  tim.o(.text)
    GetSlotNum                               0x08014a63   Thumb Code     8  tim.o(.text)
    GetFrameNum                              0x08014a6b   Thumb Code     6  tim.o(.text)
    GetSlotSum                               0x08014a71   Thumb Code    20  tim.o(.text)
    SetSlotTimer                             0x08014a85   Thumb Code    12  tim.o(.text)
    ResetTimeCount                           0x08014a91   Thumb Code    12  tim.o(.text)
    SetFSKDataXmtEn                          0x08014a9d   Thumb Code     8  tim.o(.text)
    ResetFSKDataXmtEn                        0x08014aa5   Thumb Code     8  tim.o(.text)
    GetFSKDataXmtEn                          0x08014aad   Thumb Code     6  tim.o(.text)
    GetFSKDataXmtSleepState                  0x08014ab3   Thumb Code    14  tim.o(.text)
    SetFetchFirstFskDataEn                   0x08014ac1   Thumb Code     8  tim.o(.text)
    ResetFetchFirstFskDataEn                 0x08014ac9   Thumb Code     8  tim.o(.text)
    GetFetchFirstFskDataEn                   0x08014ad1   Thumb Code     6  tim.o(.text)
    USART1_UsartConfigStructInit             0x08014ae9   Thumb Code    14  usart.o(.text)
    UartTxIntProcess                         0x08014af7   Thumb Code   122  usart.o(.text)
    UartRxProcess                            0x08014b71   Thumb Code   186  usart.o(.text)
    Usart1Interrupt                          0x08014c2b   Thumb Code    84  usart.o(.text)
    InitUsart1                               0x08014c7f   Thumb Code   132  usart.o(.text)
    Usart1_UsartConfig                       0x08014d03   Thumb Code   156  usart.o(.text)
    UartTxFIFOStructInit                     0x08014d9f   Thumb Code    16  usart.o(.text)
    UartRxFIFOStructInit                     0x08014daf   Thumb Code    32  usart.o(.text)
    InitCommStruc                            0x08014dcf   Thumb Code    70  usart.o(.text)
    UartTxMainProcess                        0x08014e15   Thumb Code    76  usart.o(.text)
    UartTxDataBuf                            0x08014e61   Thumb Code   148  usart.o(.text)
    TXbufIsEmpty                             0x08014ef5   Thumb Code    26  usart.o(.text)
    GetCOMMMess                              0x08014f0f   Thumb Code   166  usart.o(.text)
    Initia_wdg                               0x08014fc1   Thumb Code    50  wdg.o(.text)
    Feed_Dog                                 0x08014ff3   Thumb Code    18  wdg.o(.text)
    GPIOSPI_InstanceInit                     0x0801500d   Thumb Code   172  gpiospi.o(.text)
    GPIOSPI_InstResetClockCounter            0x080150b9   Thumb Code    10  gpiospi.o(.text)
    GPIOSPI_InstClockCount                   0x080150c3   Thumb Code    20  gpiospi.o(.text)
    GPIOSPI_InstSendData                     0x08015239   Thumb Code    10  gpiospi.o(.text)
    SI446X_CalcRfChannelStep                 0x08015271   Thumb Code   188  si446x.o(.text)
    SI446X_CalcIFFreq                        0x0801532d   Thumb Code   132  si446x.o(.text)
    SI446X_CalcRfOffset                      0x080153b1   Thumb Code   188  si446x.o(.text)
    SI446X_CalcRfDeviation                   0x0801546d   Thumb Code   188  si446x.o(.text)
    SI446X_CalcRfFreqFractional              0x08015529   Thumb Code   198  si446x.o(.text)
    SI446X_CalcRfFreqInteger                 0x080155ef   Thumb Code   226  si446x.o(.text)
    SI446X_SI446XStructInit                  0x080156d1   Thumb Code    88  si446x.o(.text)
    SI446X_InitPowerPins                     0x08015729   Thumb Code    40  si446x.o(.text)
    SI446X_Reset                             0x08015751   Thumb Code    78  si446x.o(.text)
    SI446X_InitPins                          0x0801579f   Thumb Code   236  si446x.o(.text)
    SI446X_SPI_ExchangeByte                  0x0801588b   Thumb Code    10  si446x.o(.text)
    SI446X_WaitCts                           0x08015895   Thumb Code    76  si446x.o(.text)
    SI446X_Cmd                               0x080158e1   Thumb Code    84  si446x.o(.text)
    SI446X_SET_PROPERTY_1                    0x08015935   Thumb Code    38  si446x.o(.text)
    SI446X_SetSi446xPaPwrLvl                 0x0801595b   Thumb Code    22  si446x.o(.text)
    SI446X_GetSi446xPaPwrLvl                 0x08015971   Thumb Code    14  si446x.o(.text)
    SI446X_TX_FIFO_RESET                     0x0801597f   Thumb Code    26  si446x.o(.text)
    SI446X_RX_FIFO_RESET                     0x08015999   Thumb Code    24  si446x.o(.text)
    SI446X_START_RX                          0x080159b1   Thumb Code    82  si446x.o(.text)
    SI446X_ReadResponse                      0x08015a03   Thumb Code    92  si446x.o(.text)
    SI446X_GPIO_PIN_CFG                      0x08015a5f   Thumb Code   106  si446x.o(.text)
    SI446X_GpioPinCfg                        0x08015ac9   Thumb Code    40  si446x.o(.text)
    SI446X_RxCfg                             0x08015af1   Thumb Code   176  si446x.o(.text)
    SI446X_START_TX                          0x08015ba1   Thumb Code    38  si446x.o(.text)
    SI446X_CHANGE_STATE                      0x08015bc7   Thumb Code    24  si446x.o(.text)
    SI446X_TxCfg                             0x08015bdf   Thumb Code   184  si446x.o(.text)
    SI446X_CfgCwTx                           0x08015c97   Thumb Code    72  si446x.o(.text)
    SI446X_CfgPN9Tx                          0x08015cdf   Thumb Code    72  si446x.o(.text)
    SI446X_PAOn                              0x08015d27   Thumb Code    14  si446x.o(.text)
    SI446X_PAOff                             0x08015d35   Thumb Code    14  si446x.o(.text)
    SI446X_GET_MODEM_STATUS                  0x08015d43   Thumb Code    34  si446x.o(.text)
    SI446X_GetRssi                           0x08015d65   Thumb Code    24  si446x.o(.text)
    SI446X_StateTo                           0x08015d7d   Thumb Code    42  si446x.o(.text)
    SI446X_IsTxDone                          0x08015da7   Thumb Code     4  si446x.o(.text)
    SI446X_A_TxRxClockIRQS                   0x08015dab   Thumb Code   160  si446x.o(.text)
    SI446X_B_TxRxClockIRQS                   0x08015e4b   Thumb Code   172  si446x.o(.text)
    SI446X_FUNC_INFO                         0x08015ef7   Thumb Code    34  si446x.o(.text)
    SI446X_PART_INFO                         0x08015f19   Thumb Code    34  si446x.o(.text)
    SI446X_POWER_UP                          0x08015f3b   Thumb Code    50  si446x.o(.text)
    SI446X_PatchInit                         0x08015f6d   Thumb Code    38  si446x.o(.text)
    SI446X_ConfigInit                        0x08015f93   Thumb Code  1754  si446x.o(.text)
    SI446X_SETFREBASE                        0x0801666d   Thumb Code     6  si446x.o(.text)
    SI446X_ModuleInit                        0x08016673   Thumb Code   114  si446x.o(.text)
    SI446X_CmdSelfCheck                      0x080166e5   Thumb Code   100  si446x.o(.text)
    SI446X_IRCAL                             0x08016749   Thumb Code    38  si446x.o(.text)
    SI446X_ReadResponseSelfCheck             0x0801676f   Thumb Code   108  si446x.o(.text)
    SI446X_NOP                               0x080167db   Thumb Code    64  si446x.o(.text)
    SI446X_PART_INFO_SelfCheck               0x0801681b   Thumb Code    40  si446x.o(.text)
    SI446X_REQUEST_DEVICE_STATE              0x08016843   Thumb Code    34  si446x.o(.text)
    SI446X_GET_INT_STATUS                    0x08016865   Thumb Code    48  si446x.o(.text)
    SI446X_GET_PROPERTY_X                    0x08016895   Thumb Code    52  si446x.o(.text)
    SI446X_SET_PROPERTY_X                    0x080168c9   Thumb Code   404  si446x.o(.text)
    SI446X_GET_PROPERTY_1                    0x08016a5d   Thumb Code    52  si446x.o(.text)
    SI446X_IQCalibration                     0x08016a91   Thumb Code  1430  si446x.o(.text)
    SI446X_WRITE_TX_FIFO                     0x08017027   Thumb Code    82  si446x.o(.text)
    SI446X_SendPacket                        0x08017079   Thumb Code   136  si446x.o(.text)
    SI446X_ReadPacket                        0x08017101   Thumb Code   104  si446x.o(.text)
    SI446X_PACKET_INFO                       0x08017169   Thumb Code    58  si446x.o(.text)
    SI446X_FIFO_INFO                         0x080171a3   Thumb Code    40  si446x.o(.text)
    SI446X_SelfCheck                         0x080171cb   Thumb Code   210  si446x.o(.text)
    SI446X_Si446xSelfCheckStructInit         0x0801729d   Thumb Code    22  si446x.o(.text)
    SI446X_RXSTTUS_Return                    0x080172b3   Thumb Code    26  si446x.o(.text)
    UartTxString                             0x080172d9   Thumb Code    22  debug.o(.text)
    usart_printf                             0x080172ef   Thumb Code    26  debug.o(.text)
    debug_printf                             0x08017309   Thumb Code    30  debug.o(.text)
    UartDebugMsg                             0x08017327   Thumb Code   146  debug.o(.text)
    UartResponseMsg                          0x080173b9   Thumb Code   126  debug.o(.text)
    NVIC_PriorityGroupConfig                 0x08017469   Thumb Code    10  misc.o(.text)
    NVIC_Init                                0x08017473   Thumb Code    94  misc.o(.text)
    NVIC_SetVectorTable                      0x080174d1   Thumb Code    14  misc.o(.text)
    NVIC_SystemLPConfig                      0x080174df   Thumb Code    20  misc.o(.text)
    SysTick_CLKSourceConfig                  0x080174f3   Thumb Code    24  misc.o(.text)
    ADC_DeInit                               0x08017519   Thumb Code    56  stm32f10x_adc.o(.text)
    ADC_Init                                 0x08017551   Thumb Code    62  stm32f10x_adc.o(.text)
    ADC_StructInit                           0x0801758f   Thumb Code    18  stm32f10x_adc.o(.text)
    ADC_Cmd                                  0x080175a1   Thumb Code    20  stm32f10x_adc.o(.text)
    ADC_DMACmd                               0x080175b5   Thumb Code    20  stm32f10x_adc.o(.text)
    ADC_ITConfig                             0x080175c9   Thumb Code    18  stm32f10x_adc.o(.text)
    ADC_ResetCalibration                     0x080175db   Thumb Code    10  stm32f10x_adc.o(.text)
    ADC_GetResetCalibrationStatus            0x080175e5   Thumb Code    14  stm32f10x_adc.o(.text)
    ADC_StartCalibration                     0x080175f3   Thumb Code    10  stm32f10x_adc.o(.text)
    ADC_GetCalibrationStatus                 0x080175fd   Thumb Code    14  stm32f10x_adc.o(.text)
    ADC_SoftwareStartConvCmd                 0x0801760b   Thumb Code    20  stm32f10x_adc.o(.text)
    ADC_GetSoftwareStartConvStatus           0x0801761f   Thumb Code    14  stm32f10x_adc.o(.text)
    ADC_DiscModeChannelCountConfig           0x0801762d   Thumb Code    16  stm32f10x_adc.o(.text)
    ADC_DiscModeCmd                          0x0801763d   Thumb Code    20  stm32f10x_adc.o(.text)
    ADC_RegularChannelConfig                 0x08017651   Thumb Code   116  stm32f10x_adc.o(.text)
    ADC_ExternalTrigConvCmd                  0x080176c5   Thumb Code    20  stm32f10x_adc.o(.text)
    ADC_GetConversionValue                   0x080176d9   Thumb Code     6  stm32f10x_adc.o(.text)
    ADC_GetDualModeConversionValue           0x080176df   Thumb Code     8  stm32f10x_adc.o(.text)
    ADC_AutoInjectedConvCmd                  0x080176e7   Thumb Code    20  stm32f10x_adc.o(.text)
    ADC_InjectedDiscModeCmd                  0x080176fb   Thumb Code    20  stm32f10x_adc.o(.text)
    ADC_ExternalTrigInjectedConvConfig       0x0801770f   Thumb Code    12  stm32f10x_adc.o(.text)
    ADC_ExternalTrigInjectedConvCmd          0x0801771b   Thumb Code    20  stm32f10x_adc.o(.text)
    ADC_SoftwareStartInjectedConvCmd         0x0801772f   Thumb Code    20  stm32f10x_adc.o(.text)
    ADC_GetSoftwareStartInjectedConvCmdStatus 0x08017743   Thumb Code    14  stm32f10x_adc.o(.text)
    ADC_InjectedChannelConfig                0x08017751   Thumb Code    74  stm32f10x_adc.o(.text)
    ADC_InjectedSequencerLengthConfig        0x0801779b   Thumb Code    16  stm32f10x_adc.o(.text)
    ADC_SetInjectedOffset                    0x080177ab   Thumb Code    10  stm32f10x_adc.o(.text)
    ADC_GetInjectedConversionValue           0x080177b5   Thumb Code    14  stm32f10x_adc.o(.text)
    ADC_AnalogWatchdogCmd                    0x080177c3   Thumb Code    12  stm32f10x_adc.o(.text)
    ADC_AnalogWatchdogThresholdsConfig       0x080177cf   Thumb Code     6  stm32f10x_adc.o(.text)
    ADC_AnalogWatchdogSingleChannelConfig    0x080177d5   Thumb Code    12  stm32f10x_adc.o(.text)
    ADC_TempSensorVrefintCmd                 0x080177e1   Thumb Code    24  stm32f10x_adc.o(.text)
    ADC_GetFlagStatus                        0x080177f9   Thumb Code    14  stm32f10x_adc.o(.text)
    ADC_ClearFlag                            0x08017807   Thumb Code     6  stm32f10x_adc.o(.text)
    ADC_GetITStatus                          0x0801780d   Thumb Code    28  stm32f10x_adc.o(.text)
    ADC_ClearITPendingBit                    0x08017829   Thumb Code     8  stm32f10x_adc.o(.text)
    BKP_DeInit                               0x08017849   Thumb Code    18  stm32f10x_bkp.o(.text)
    BKP_TamperPinLevelConfig                 0x0801785b   Thumb Code     6  stm32f10x_bkp.o(.text)
    BKP_TamperPinCmd                         0x08017861   Thumb Code     8  stm32f10x_bkp.o(.text)
    BKP_ITConfig                             0x08017869   Thumb Code     8  stm32f10x_bkp.o(.text)
    BKP_RTCOutputConfig                      0x08017871   Thumb Code    14  stm32f10x_bkp.o(.text)
    BKP_SetRTCCalibrationValue               0x0801787f   Thumb Code    14  stm32f10x_bkp.o(.text)
    BKP_WriteBackupRegister                  0x0801788d   Thumb Code    14  stm32f10x_bkp.o(.text)
    BKP_ReadBackupRegister                   0x0801789b   Thumb Code    14  stm32f10x_bkp.o(.text)
    BKP_GetFlagStatus                        0x080178a9   Thumb Code    10  stm32f10x_bkp.o(.text)
    BKP_ClearFlag                            0x080178b3   Thumb Code    14  stm32f10x_bkp.o(.text)
    BKP_GetITStatus                          0x080178c1   Thumb Code    10  stm32f10x_bkp.o(.text)
    BKP_ClearITPendingBit                    0x080178cb   Thumb Code    14  stm32f10x_bkp.o(.text)
    DAC_DeInit                               0x080178e1   Thumb Code    24  stm32f10x_dac.o(.text)
    DAC_Init                                 0x080178f9   Thumb Code    36  stm32f10x_dac.o(.text)
    DAC_StructInit                           0x0801791d   Thumb Code    12  stm32f10x_dac.o(.text)
    DAC_Cmd                                  0x08017929   Thumb Code    20  stm32f10x_dac.o(.text)
    DAC_DMACmd                               0x0801793d   Thumb Code    20  stm32f10x_dac.o(.text)
    DAC_SoftwareTriggerCmd                   0x08017951   Thumb Code    26  stm32f10x_dac.o(.text)
    DAC_DualSoftwareTriggerCmd               0x0801796b   Thumb Code    24  stm32f10x_dac.o(.text)
    DAC_WaveGenerationCmd                    0x08017983   Thumb Code    18  stm32f10x_dac.o(.text)
    DAC_SetChannel1Data                      0x08017995   Thumb Code    14  stm32f10x_dac.o(.text)
    DAC_SetChannel2Data                      0x080179a3   Thumb Code    14  stm32f10x_dac.o(.text)
    DAC_SetDualChannelData                   0x080179b1   Thumb Code    22  stm32f10x_dac.o(.text)
    DAC_GetDataOutputValue                   0x080179c7   Thumb Code    18  stm32f10x_dac.o(.text)
    DBGMCU_GetREVID                          0x080179dd   Thumb Code     8  stm32f10x_dbgmcu.o(.text)
    DBGMCU_GetDEVID                          0x080179e5   Thumb Code    10  stm32f10x_dbgmcu.o(.text)
    DBGMCU_Config                            0x080179ef   Thumb Code    18  stm32f10x_dbgmcu.o(.text)
    DMA_DeInit                               0x08017a05   Thumb Code   218  stm32f10x_dma.o(.text)
    DMA_Init                                 0x08017adf   Thumb Code    58  stm32f10x_dma.o(.text)
    DMA_StructInit                           0x08017b19   Thumb Code    26  stm32f10x_dma.o(.text)
    DMA_Cmd                                  0x08017b33   Thumb Code    22  stm32f10x_dma.o(.text)
    DMA_ITConfig                             0x08017b49   Thumb Code    16  stm32f10x_dma.o(.text)
    DMA_SetCurrDataCounter                   0x08017b59   Thumb Code     4  stm32f10x_dma.o(.text)
    DMA_GetCurrDataCounter                   0x08017b5d   Thumb Code     6  stm32f10x_dma.o(.text)
    DMA_GetFlagStatus                        0x08017b63   Thumb Code    28  stm32f10x_dma.o(.text)
    DMA_ClearFlag                            0x08017b7f   Thumb Code    20  stm32f10x_dma.o(.text)
    DMA_GetITStatus                          0x08017b93   Thumb Code    28  stm32f10x_dma.o(.text)
    DMA_ClearITPendingBit                    0x08017baf   Thumb Code    20  stm32f10x_dma.o(.text)
    EXTI_DeInit                              0x08017bcd   Thumb Code    28  stm32f10x_exti.o(.text)
    EXTI_Init                                0x08017be9   Thumb Code   108  stm32f10x_exti.o(.text)
    EXTI_StructInit                          0x08017c55   Thumb Code    14  stm32f10x_exti.o(.text)
    EXTI_GenerateSWInterrupt                 0x08017c63   Thumb Code    12  stm32f10x_exti.o(.text)
    EXTI_GetFlagStatus                       0x08017c6f   Thumb Code    18  stm32f10x_exti.o(.text)
    EXTI_ClearFlag                           0x08017c81   Thumb Code     8  stm32f10x_exti.o(.text)
    EXTI_GetITStatus                         0x08017c89   Thumb Code    28  stm32f10x_exti.o(.text)
    EXTI_ClearITPendingBit                   0x08017ca5   Thumb Code     8  stm32f10x_exti.o(.text)
    FLASH_SetLatency                         0x08017cb5   Thumb Code    14  stm32f10x_flash_1.o(.text)
    FLASH_HalfCycleAccessCmd                 0x08017cc3   Thumb Code    18  stm32f10x_flash_1.o(.text)
    FLASH_PrefetchBufferCmd                  0x08017cd5   Thumb Code    18  stm32f10x_flash_1.o(.text)
    FLASH_Unlock                             0x08017ce7   Thumb Code    12  stm32f10x_flash_1.o(.text)
    FLASH_UnlockBank1                        0x08017cf3   Thumb Code    12  stm32f10x_flash_1.o(.text)
    FLASH_Lock                               0x08017cff   Thumb Code    12  stm32f10x_flash_1.o(.text)
    FLASH_LockBank1                          0x08017d0b   Thumb Code    12  stm32f10x_flash_1.o(.text)
    FLASH_GetBank1Status                     0x08017d17   Thumb Code    34  stm32f10x_flash_1.o(.text)
    FLASH_WaitForLastOperation               0x08017d39   Thumb Code    36  stm32f10x_flash_1.o(.text)
    FLASH_ErasePage                          0x08017d5d   Thumb Code    56  stm32f10x_flash_1.o(.text)
    FLASH_EraseAllPages                      0x08017d95   Thumb Code    52  stm32f10x_flash_1.o(.text)
    FLASH_WaitForLastBank1Operation          0x08017dc9   Thumb Code    36  stm32f10x_flash_1.o(.text)
    FLASH_EraseAllBank1Pages                 0x08017ded   Thumb Code    52  stm32f10x_flash_1.o(.text)
    FLASH_GetReadOutProtectionStatus         0x08017e21   Thumb Code    14  stm32f10x_flash_1.o(.text)
    FLASH_EraseOptionBytes                   0x08017e2f   Thumb Code   108  stm32f10x_flash_1.o(.text)
    FLASH_ProgramWord                        0x08017e9b   Thumb Code    72  stm32f10x_flash_1.o(.text)
    FLASH_ProgramHalfWord                    0x08017ee3   Thumb Code    48  stm32f10x_flash_1.o(.text)
    FLASH_ProgramOptionByteData              0x08017f13   Thumb Code    62  stm32f10x_flash_1.o(.text)
    FLASH_EnableWriteProtection              0x08017f51   Thumb Code   150  stm32f10x_flash_1.o(.text)
    FLASH_ReadOutProtection                  0x08017fe7   Thumb Code   118  stm32f10x_flash_1.o(.text)
    FLASH_UserOptionByteConfig               0x0801805d   Thumb Code    92  stm32f10x_flash_1.o(.text)
    FLASH_GetUserOptionByte                  0x080180b9   Thumb Code     8  stm32f10x_flash_1.o(.text)
    FLASH_GetWriteProtectionOptionByte       0x080180c1   Thumb Code     6  stm32f10x_flash_1.o(.text)
    FLASH_GetPrefetchBufferStatus            0x080180c7   Thumb Code    14  stm32f10x_flash_1.o(.text)
    FLASH_ITConfig                           0x080180d5   Thumb Code    18  stm32f10x_flash_1.o(.text)
    FLASH_GetFlagStatus                      0x080180e7   Thumb Code    28  stm32f10x_flash_1.o(.text)
    FLASH_ClearFlag                          0x08018103   Thumb Code     6  stm32f10x_flash_1.o(.text)
    FLASH_GetStatus                          0x08018109   Thumb Code    34  stm32f10x_flash_1.o(.text)
    GPIO_DeInit                              0x08018131   Thumb Code   152  stm32f10x_gpio.o(.text)
    GPIO_AFIODeInit                          0x080181c9   Thumb Code    22  stm32f10x_gpio.o(.text)
    GPIO_Init                                0x080181df   Thumb Code   164  stm32f10x_gpio.o(.text)
    GPIO_StructInit                          0x08018283   Thumb Code    16  stm32f10x_gpio.o(.text)
    GPIO_ReadInputDataBit                    0x08018293   Thumb Code    14  stm32f10x_gpio.o(.text)
    GPIO_ReadInputData                       0x080182a1   Thumb Code     6  stm32f10x_gpio.o(.text)
    GPIO_ReadOutputDataBit                   0x080182a7   Thumb Code    14  stm32f10x_gpio.o(.text)
    GPIO_ReadOutputData                      0x080182b5   Thumb Code     6  stm32f10x_gpio.o(.text)
    GPIO_SetBits                             0x080182bb   Thumb Code     4  stm32f10x_gpio.o(.text)
    GPIO_ResetBits                           0x080182bf   Thumb Code     4  stm32f10x_gpio.o(.text)
    GPIO_WriteBit                            0x080182c3   Thumb Code    10  stm32f10x_gpio.o(.text)
    GPIO_Write                               0x080182cd   Thumb Code     4  stm32f10x_gpio.o(.text)
    GPIO_PinLockConfig                       0x080182d1   Thumb Code    16  stm32f10x_gpio.o(.text)
    GPIO_EventOutputConfig                   0x080182e1   Thumb Code    22  stm32f10x_gpio.o(.text)
    GPIO_EventOutputCmd                      0x080182f7   Thumb Code     6  stm32f10x_gpio.o(.text)
    GPIO_PinRemapConfig                      0x080182fd   Thumb Code    82  stm32f10x_gpio.o(.text)
    GPIO_EXTILineConfig                      0x0801834f   Thumb Code    34  stm32f10x_gpio.o(.text)
    GPIO_ETH_MediaInterfaceConfig            0x08018371   Thumb Code     8  stm32f10x_gpio.o(.text)
    IWDG_WriteAccessCmd                      0x0801839d   Thumb Code     6  stm32f10x_iwdg.o(.text)
    IWDG_SetPrescaler                        0x080183a3   Thumb Code     6  stm32f10x_iwdg.o(.text)
    IWDG_SetReload                           0x080183a9   Thumb Code     6  stm32f10x_iwdg.o(.text)
    IWDG_ReloadCounter                       0x080183af   Thumb Code    10  stm32f10x_iwdg.o(.text)
    IWDG_Enable                              0x080183b9   Thumb Code    10  stm32f10x_iwdg.o(.text)
    IWDG_GetFlagStatus                       0x080183c3   Thumb Code    16  stm32f10x_iwdg.o(.text)
    PWR_DeInit                               0x080183d9   Thumb Code    24  stm32f10x_pwr.o(.text)
    PWR_BackupAccessCmd                      0x080183f1   Thumb Code     6  stm32f10x_pwr.o(.text)
    PWR_PVDCmd                               0x080183f7   Thumb Code     6  stm32f10x_pwr.o(.text)
    PWR_PVDLevelConfig                       0x080183fd   Thumb Code    14  stm32f10x_pwr.o(.text)
    PWR_WakeUpPinCmd                         0x0801840b   Thumb Code     8  stm32f10x_pwr.o(.text)
    PWR_EnterSTOPMode                        0x08018413   Thumb Code    42  stm32f10x_pwr.o(.text)
    PWR_EnterSTANDBYMode                     0x0801843d   Thumb Code    32  stm32f10x_pwr.o(.text)
    PWR_GetFlagStatus                        0x0801845d   Thumb Code    16  stm32f10x_pwr.o(.text)
    PWR_ClearFlag                            0x0801846d   Thumb Code    12  stm32f10x_pwr.o(.text)
    RCC_DeInit                               0x08018485   Thumb Code    50  stm32f10x_rcc.o(.text)
    RCC_HSEConfig                            0x080184b7   Thumb Code    48  stm32f10x_rcc.o(.text)
    RCC_GetFlagStatus                        0x080184e7   Thumb Code    42  stm32f10x_rcc.o(.text)
    RCC_WaitForHSEStartUp                    0x08018511   Thumb Code    44  stm32f10x_rcc.o(.text)
    RCC_AdjustHSICalibrationValue            0x0801853d   Thumb Code    16  stm32f10x_rcc.o(.text)
    RCC_HSICmd                               0x0801854d   Thumb Code     6  stm32f10x_rcc.o(.text)
    RCC_PLLConfig                            0x08018553   Thumb Code    16  stm32f10x_rcc.o(.text)
    RCC_PLLCmd                               0x08018563   Thumb Code     6  stm32f10x_rcc.o(.text)
    RCC_SYSCLKConfig                         0x08018569   Thumb Code    14  stm32f10x_rcc.o(.text)
    RCC_GetSYSCLKSource                      0x08018577   Thumb Code    10  stm32f10x_rcc.o(.text)
    RCC_HCLKConfig                           0x08018581   Thumb Code    14  stm32f10x_rcc.o(.text)
    RCC_PCLK1Config                          0x0801858f   Thumb Code    14  stm32f10x_rcc.o(.text)
    RCC_PCLK2Config                          0x0801859d   Thumb Code    16  stm32f10x_rcc.o(.text)
    RCC_ITConfig                             0x080185ad   Thumb Code    18  stm32f10x_rcc.o(.text)
    RCC_USBCLKConfig                         0x080185bf   Thumb Code     8  stm32f10x_rcc.o(.text)
    RCC_ADCCLKConfig                         0x080185c7   Thumb Code    14  stm32f10x_rcc.o(.text)
    RCC_LSEConfig                            0x080185d5   Thumb Code    28  stm32f10x_rcc.o(.text)
    RCC_LSICmd                               0x080185f1   Thumb Code     6  stm32f10x_rcc.o(.text)
    RCC_RTCCLKConfig                         0x080185f7   Thumb Code    10  stm32f10x_rcc.o(.text)
    RCC_RTCCLKCmd                            0x08018601   Thumb Code     8  stm32f10x_rcc.o(.text)
    RCC_GetClocksFreq                        0x08018609   Thumb Code   140  stm32f10x_rcc.o(.text)
    RCC_AHBPeriphClockCmd                    0x08018695   Thumb Code    18  stm32f10x_rcc.o(.text)
    RCC_APB2PeriphClockCmd                   0x080186a7   Thumb Code    18  stm32f10x_rcc.o(.text)
    RCC_APB1PeriphClockCmd                   0x080186b9   Thumb Code    18  stm32f10x_rcc.o(.text)
    RCC_APB2PeriphResetCmd                   0x080186cb   Thumb Code    18  stm32f10x_rcc.o(.text)
    RCC_APB1PeriphResetCmd                   0x080186dd   Thumb Code    18  stm32f10x_rcc.o(.text)
    RCC_BackupResetCmd                       0x080186ef   Thumb Code     8  stm32f10x_rcc.o(.text)
    RCC_ClockSecuritySystemCmd               0x080186f7   Thumb Code     6  stm32f10x_rcc.o(.text)
    RCC_MCOConfig                            0x080186fd   Thumb Code     6  stm32f10x_rcc.o(.text)
    RCC_ClearFlag                            0x08018703   Thumb Code    12  stm32f10x_rcc.o(.text)
    RCC_GetITStatus                          0x0801870f   Thumb Code    16  stm32f10x_rcc.o(.text)
    RCC_ClearITPendingBit                    0x0801871f   Thumb Code     6  stm32f10x_rcc.o(.text)
    RTC_ITConfig                             0x0801874d   Thumb Code    18  stm32f10x_rtc.o(.text)
    RTC_EnterConfigMode                      0x0801875f   Thumb Code    14  stm32f10x_rtc.o(.text)
    RTC_ExitConfigMode                       0x0801876d   Thumb Code    14  stm32f10x_rtc.o(.text)
    RTC_GetCounter                           0x0801877b   Thumb Code    18  stm32f10x_rtc.o(.text)
    RTC_SetCounter                           0x0801878d   Thumb Code    26  stm32f10x_rtc.o(.text)
    RTC_SetPrescaler                         0x080187a7   Thumb Code    28  stm32f10x_rtc.o(.text)
    RTC_SetAlarm                             0x080187c3   Thumb Code    26  stm32f10x_rtc.o(.text)
    RTC_GetDivider                           0x080187dd   Thumb Code    20  stm32f10x_rtc.o(.text)
    RTC_WaitForLastTask                      0x080187f1   Thumb Code    12  stm32f10x_rtc.o(.text)
    RTC_WaitForSynchro                       0x080187fd   Thumb Code    20  stm32f10x_rtc.o(.text)
    RTC_GetFlagStatus                        0x08018811   Thumb Code    18  stm32f10x_rtc.o(.text)
    RTC_ClearFlag                            0x08018823   Thumb Code    12  stm32f10x_rtc.o(.text)
    RTC_GetITStatus                          0x0801882f   Thumb Code    28  stm32f10x_rtc.o(.text)
    RTC_ClearITPendingBit                    0x0801884b   Thumb Code    12  stm32f10x_rtc.o(.text)
    SPI_I2S_DeInit                           0x0801885d   Thumb Code    72  stm32f10x_spi.o(.text)
    SPI_Init                                 0x080188a5   Thumb Code    56  stm32f10x_spi.o(.text)
    I2S_Init                                 0x080188dd   Thumb Code   152  stm32f10x_spi.o(.text)
    SPI_StructInit                           0x08018975   Thumb Code    24  stm32f10x_spi.o(.text)
    I2S_StructInit                           0x0801898d   Thumb Code    18  stm32f10x_spi.o(.text)
    SPI_Cmd                                  0x0801899f   Thumb Code    20  stm32f10x_spi.o(.text)
    I2S_Cmd                                  0x080189b3   Thumb Code    20  stm32f10x_spi.o(.text)
    SPI_I2S_ITConfig                         0x080189c7   Thumb Code    24  stm32f10x_spi.o(.text)
    SPI_I2S_DMACmd                           0x080189df   Thumb Code    16  stm32f10x_spi.o(.text)
    SPI_I2S_SendData                         0x080189ef   Thumb Code     4  stm32f10x_spi.o(.text)
    SPI_I2S_ReceiveData                      0x080189f3   Thumb Code     4  stm32f10x_spi.o(.text)
    SPI_NSSInternalSoftwareConfig            0x080189f7   Thumb Code    24  stm32f10x_spi.o(.text)
    SPI_SSOutputCmd                          0x08018a0f   Thumb Code    20  stm32f10x_spi.o(.text)
    SPI_DataSizeConfig                       0x08018a23   Thumb Code    16  stm32f10x_spi.o(.text)
    SPI_TransmitCRC                          0x08018a33   Thumb Code    10  stm32f10x_spi.o(.text)
    SPI_CalculateCRC                         0x08018a3d   Thumb Code    20  stm32f10x_spi.o(.text)
    SPI_GetCRC                               0x08018a51   Thumb Code    12  stm32f10x_spi.o(.text)
    SPI_GetCRCPolynomial                     0x08018a5d   Thumb Code     4  stm32f10x_spi.o(.text)
    SPI_BiDirectionalLineConfig              0x08018a61   Thumb Code    22  stm32f10x_spi.o(.text)
    SPI_I2S_GetFlagStatus                    0x08018a77   Thumb Code    14  stm32f10x_spi.o(.text)
    SPI_I2S_ClearFlag                        0x08018a85   Thumb Code     6  stm32f10x_spi.o(.text)
    SPI_I2S_GetITStatus                      0x08018a8b   Thumb Code    42  stm32f10x_spi.o(.text)
    SPI_I2S_ClearITPendingBit                0x08018ab5   Thumb Code    14  stm32f10x_spi.o(.text)
    TIM_DeInit                               0x08018ad1   Thumb Code   304  stm32f10x_tim.o(.text)
    TIM_TimeBaseInit                         0x08018c01   Thumb Code   114  stm32f10x_tim.o(.text)
    TIM_OC1Init                              0x08018c73   Thumb Code   106  stm32f10x_tim.o(.text)
    TIM_OC2Init                              0x08018cdd   Thumb Code   120  stm32f10x_tim.o(.text)
    TIM_OC3Init                              0x08018d55   Thumb Code   116  stm32f10x_tim.o(.text)
    TIM_OC4Init                              0x08018dc9   Thumb Code    90  stm32f10x_tim.o(.text)
    TIM_SetIC4Prescaler                      0x08018e23   Thumb Code    24  stm32f10x_tim.o(.text)
    TIM_SetIC3Prescaler                      0x08018e3b   Thumb Code    16  stm32f10x_tim.o(.text)
    TIM_SetIC2Prescaler                      0x08018e4b   Thumb Code    24  stm32f10x_tim.o(.text)
    TIM_SetIC1Prescaler                      0x08018f09   Thumb Code    16  stm32f10x_tim.o(.text)
    TIM_ICInit                               0x08018f71   Thumb Code   272  stm32f10x_tim.o(.text)
    TIM_PWMIConfig                           0x08019081   Thumb Code   104  stm32f10x_tim.o(.text)
    TIM_BDTRConfig                           0x080190e9   Thumb Code    34  stm32f10x_tim.o(.text)
    TIM_TimeBaseStructInit                   0x0801910b   Thumb Code    18  stm32f10x_tim.o(.text)
    TIM_OCStructInit                         0x0801911d   Thumb Code    20  stm32f10x_tim.o(.text)
    TIM_ICStructInit                         0x08019131   Thumb Code    16  stm32f10x_tim.o(.text)
    TIM_BDTRStructInit                       0x08019141   Thumb Code    18  stm32f10x_tim.o(.text)
    TIM_Cmd                                  0x08019153   Thumb Code    20  stm32f10x_tim.o(.text)
    TIM_CtrlPWMOutputs                       0x08019167   Thumb Code    22  stm32f10x_tim.o(.text)
    TIM_ITConfig                             0x0801917d   Thumb Code    16  stm32f10x_tim.o(.text)
    TIM_GenerateEvent                        0x0801918d   Thumb Code     4  stm32f10x_tim.o(.text)
    TIM_DMAConfig                            0x08019191   Thumb Code     8  stm32f10x_tim.o(.text)
    TIM_DMACmd                               0x08019199   Thumb Code    16  stm32f10x_tim.o(.text)
    TIM_InternalClockConfig                  0x080191a9   Thumb Code    10  stm32f10x_tim.o(.text)
    TIM_SelectInputTrigger                   0x080191b3   Thumb Code    12  stm32f10x_tim.o(.text)
    TIM_ITRxExternalClockConfig              0x080191bf   Thumb Code    18  stm32f10x_tim.o(.text)
    TIM_TIxExternalClockConfig               0x080191d1   Thumb Code    46  stm32f10x_tim.o(.text)
    TIM_ETRConfig                            0x080191ff   Thumb Code    24  stm32f10x_tim.o(.text)
    TIM_ETRClockMode1Config                  0x08019217   Thumb Code    18  stm32f10x_tim.o(.text)
    TIM_ETRClockMode2Config                  0x08019229   Thumb Code    18  stm32f10x_tim.o(.text)
    TIM_PrescalerConfig                      0x0801923b   Thumb Code     6  stm32f10x_tim.o(.text)
    TIM_CounterModeConfig                    0x08019241   Thumb Code    12  stm32f10x_tim.o(.text)
    TIM_EncoderInterfaceConfig               0x0801924d   Thumb Code    50  stm32f10x_tim.o(.text)
    TIM_ForcedOC1Config                      0x0801927f   Thumb Code    12  stm32f10x_tim.o(.text)
    TIM_ForcedOC2Config                      0x0801928b   Thumb Code    20  stm32f10x_tim.o(.text)
    TIM_ForcedOC3Config                      0x0801929f   Thumb Code    12  stm32f10x_tim.o(.text)
    TIM_ForcedOC4Config                      0x080192ab   Thumb Code    20  stm32f10x_tim.o(.text)
    TIM_ARRPreloadConfig                     0x080192bf   Thumb Code    20  stm32f10x_tim.o(.text)
    TIM_SelectCOM                            0x080192d3   Thumb Code    20  stm32f10x_tim.o(.text)
    TIM_SelectCCDMA                          0x080192e7   Thumb Code    20  stm32f10x_tim.o(.text)
    TIM_CCPreloadControl                     0x080192fb   Thumb Code    20  stm32f10x_tim.o(.text)
    TIM_OC1PreloadConfig                     0x0801930f   Thumb Code    34  stm32f10x_tim.o(.text)
    TIM_OC2PreloadConfig                     0x08019331   Thumb Code    20  stm32f10x_tim.o(.text)
    TIM_OC3PreloadConfig                     0x08019345   Thumb Code    12  stm32f10x_tim.o(.text)
    TIM_OC4PreloadConfig                     0x08019351   Thumb Code    20  stm32f10x_tim.o(.text)
    TIM_OC1FastConfig                        0x08019365   Thumb Code    12  stm32f10x_tim.o(.text)
    TIM_OC2FastConfig                        0x08019371   Thumb Code    20  stm32f10x_tim.o(.text)
    TIM_OC3FastConfig                        0x08019385   Thumb Code    12  stm32f10x_tim.o(.text)
    TIM_OC4FastConfig                        0x08019391   Thumb Code    20  stm32f10x_tim.o(.text)
    TIM_ClearOC1Ref                          0x080193a5   Thumb Code    12  stm32f10x_tim.o(.text)
    TIM_ClearOC2Ref                          0x080193b1   Thumb Code    20  stm32f10x_tim.o(.text)
    TIM_ClearOC3Ref                          0x080193c5   Thumb Code    12  stm32f10x_tim.o(.text)
    TIM_ClearOC4Ref                          0x080193d1   Thumb Code    20  stm32f10x_tim.o(.text)
    TIM_OC1PolarityConfig                    0x080193e5   Thumb Code    12  stm32f10x_tim.o(.text)
    TIM_OC1NPolarityConfig                   0x080193f1   Thumb Code    12  stm32f10x_tim.o(.text)
    TIM_OC2PolarityConfig                    0x080193fd   Thumb Code    20  stm32f10x_tim.o(.text)
    TIM_OC2NPolarityConfig                   0x08019411   Thumb Code    20  stm32f10x_tim.o(.text)
    TIM_OC3PolarityConfig                    0x08019425   Thumb Code    20  stm32f10x_tim.o(.text)
    TIM_OC3NPolarityConfig                   0x08019439   Thumb Code    20  stm32f10x_tim.o(.text)
    TIM_OC4PolarityConfig                    0x0801944d   Thumb Code    20  stm32f10x_tim.o(.text)
    TIM_CCxCmd                               0x08019461   Thumb Code    22  stm32f10x_tim.o(.text)
    TIM_CCxNCmd                              0x08019477   Thumb Code    22  stm32f10x_tim.o(.text)
    TIM_SelectOCxM                           0x0801948d   Thumb Code    70  stm32f10x_tim.o(.text)
    TIM_UpdateDisableConfig                  0x080194d3   Thumb Code    20  stm32f10x_tim.o(.text)
    TIM_UpdateRequestConfig                  0x080194e7   Thumb Code    20  stm32f10x_tim.o(.text)
    TIM_SelectHallSensor                     0x080194fb   Thumb Code    20  stm32f10x_tim.o(.text)
    TIM_SelectOnePulseMode                   0x0801950f   Thumb Code    16  stm32f10x_tim.o(.text)
    TIM_SelectOutputTrigger                  0x0801951f   Thumb Code    16  stm32f10x_tim.o(.text)
    TIM_SelectSlaveMode                      0x0801952f   Thumb Code    16  stm32f10x_tim.o(.text)
    TIM_SelectMasterSlaveMode                0x0801953f   Thumb Code    16  stm32f10x_tim.o(.text)
    TIM_SetCounter                           0x0801954f   Thumb Code     4  stm32f10x_tim.o(.text)
    TIM_SetAutoreload                        0x08019553   Thumb Code     4  stm32f10x_tim.o(.text)
    TIM_SetCompare1                          0x08019557   Thumb Code     4  stm32f10x_tim.o(.text)
    TIM_SetCompare2                          0x0801955b   Thumb Code     4  stm32f10x_tim.o(.text)
    TIM_SetCompare3                          0x0801955f   Thumb Code     4  stm32f10x_tim.o(.text)
    TIM_SetCompare4                          0x08019563   Thumb Code     6  stm32f10x_tim.o(.text)
    TIM_SetClockDivision                     0x08019569   Thumb Code    16  stm32f10x_tim.o(.text)
    TIM_GetCapture1                          0x08019579   Thumb Code     4  stm32f10x_tim.o(.text)
    TIM_GetCapture2                          0x0801957d   Thumb Code     4  stm32f10x_tim.o(.text)
    TIM_GetCapture3                          0x08019581   Thumb Code     4  stm32f10x_tim.o(.text)
    TIM_GetCapture4                          0x08019585   Thumb Code     6  stm32f10x_tim.o(.text)
    TIM_GetCounter                           0x0801958b   Thumb Code     4  stm32f10x_tim.o(.text)
    TIM_GetPrescaler                         0x0801958f   Thumb Code     4  stm32f10x_tim.o(.text)
    TIM_GetFlagStatus                        0x08019593   Thumb Code    14  stm32f10x_tim.o(.text)
    TIM_ClearFlag                            0x080195a1   Thumb Code     6  stm32f10x_tim.o(.text)
    TIM_GetITStatus                          0x080195a7   Thumb Code    24  stm32f10x_tim.o(.text)
    TIM_ClearITPendingBit                    0x080195bf   Thumb Code     6  stm32f10x_tim.o(.text)
    USART_DeInit                             0x080195c5   Thumb Code    96  stm32f10x_usart.o(.text)
    USART_Init                               0x08019625   Thumb Code   166  stm32f10x_usart.o(.text)
    USART_StructInit                         0x080196cb   Thumb Code    22  stm32f10x_usart.o(.text)
    USART_ClockInit                          0x080196e1   Thumb Code    30  stm32f10x_usart.o(.text)
    USART_ClockStructInit                    0x080196ff   Thumb Code    12  stm32f10x_usart.o(.text)
    USART_Cmd                                0x0801970b   Thumb Code    20  stm32f10x_usart.o(.text)
    USART_ITConfig                           0x0801971f   Thumb Code    48  stm32f10x_usart.o(.text)
    USART_DMACmd                             0x0801974f   Thumb Code    16  stm32f10x_usart.o(.text)
    USART_SetAddress                         0x0801975f   Thumb Code    16  stm32f10x_usart.o(.text)
    USART_WakeUpConfig                       0x0801976f   Thumb Code    16  stm32f10x_usart.o(.text)
    USART_ReceiverWakeUpCmd                  0x0801977f   Thumb Code    20  stm32f10x_usart.o(.text)
    USART_LINBreakDetectLengthConfig         0x08019793   Thumb Code    16  stm32f10x_usart.o(.text)
    USART_LINCmd                             0x080197a3   Thumb Code    20  stm32f10x_usart.o(.text)
    USART_SendData                           0x080197b7   Thumb Code     8  stm32f10x_usart.o(.text)
    USART_ReceiveData                        0x080197bf   Thumb Code     8  stm32f10x_usart.o(.text)
    USART_SendBreak                          0x080197c7   Thumb Code    10  stm32f10x_usart.o(.text)
    USART_SetGuardTime                       0x080197d1   Thumb Code    16  stm32f10x_usart.o(.text)
    USART_SetPrescaler                       0x080197e1   Thumb Code    16  stm32f10x_usart.o(.text)
    USART_SmartCardCmd                       0x080197f1   Thumb Code    20  stm32f10x_usart.o(.text)
    USART_SmartCardNACKCmd                   0x08019805   Thumb Code    20  stm32f10x_usart.o(.text)
    USART_HalfDuplexCmd                      0x08019819   Thumb Code    20  stm32f10x_usart.o(.text)
    USART_OverSampling8Cmd                   0x0801982d   Thumb Code    20  stm32f10x_usart.o(.text)
    USART_OneBitMethodCmd                    0x08019841   Thumb Code    20  stm32f10x_usart.o(.text)
    USART_IrDAConfig                         0x08019855   Thumb Code    16  stm32f10x_usart.o(.text)
    USART_IrDACmd                            0x08019865   Thumb Code    20  stm32f10x_usart.o(.text)
    USART_GetFlagStatus                      0x08019879   Thumb Code    14  stm32f10x_usart.o(.text)
    USART_ClearFlag                          0x08019887   Thumb Code     6  stm32f10x_usart.o(.text)
    USART_GetITStatus                        0x0801988d   Thumb Code    62  stm32f10x_usart.o(.text)
    USART_ClearITPendingBit                  0x080198cb   Thumb Code    12  stm32f10x_usart.o(.text)
    NVIC_DeInit                              0x080198ed   Thumb Code    44  migrate.o(.text)
    NVIC_GenerateSystemReset                 0x08019919   Thumb Code     8  migrate.o(.text)
    PTT_Init_IO                              0x08019929   Thumb Code   248  ptt_lnw.o(.text)
    PTT_OBJ_INIT                             0x08019a21   Thumb Code    34  ptt_lnw.o(.text)
    PTT_Warnlight_Control                    0x08019a43   Thumb Code    68  ptt_lnw.o(.text)
    PTT_WARNLIGHT_ENABLE                     0x08019a87   Thumb Code    12  ptt_lnw.o(.text)
    PTT_TX_Control                           0x08019a93   Thumb Code   128  ptt_lnw.o(.text)
    PTT_LowPower_Get                         0x08019b13   Thumb Code     6  ptt_lnw.o(.text)
    PTT_MainPower_Check                      0x08019b19   Thumb Code   136  ptt_lnw.o(.text)
    PTT_Work_Process                         0x08019ba1   Thumb Code     2  ptt_lnw.o(.text)
    PTT_Timer_Service                        0x08019ba3   Thumb Code    34  ptt_lnw.o(.text)
    rand                                     0x08019be1   Thumb Code    20  rand.o(.text)
    srand                                    0x08019bf5   Thumb Code     6  rand.o(.text)
    __aeabi_memcpy                           0x08019c05   Thumb Code    36  memcpya.o(.text)
    __aeabi_memcpy4                          0x08019c05   Thumb Code     0  memcpya.o(.text)
    __aeabi_memcpy8                          0x08019c05   Thumb Code     0  memcpya.o(.text)
    __aeabi_memset                           0x08019c29   Thumb Code    14  memseta.o(.text)
    __aeabi_memset4                          0x08019c29   Thumb Code     0  memseta.o(.text)
    __aeabi_memset8                          0x08019c29   Thumb Code     0  memseta.o(.text)
    __aeabi_memclr                           0x08019c37   Thumb Code     4  memseta.o(.text)
    __aeabi_memclr4                          0x08019c37   Thumb Code     0  memseta.o(.text)
    __aeabi_memclr8                          0x08019c37   Thumb Code     0  memseta.o(.text)
    _memset$wrapper                          0x08019c3b   Thumb Code    18  memseta.o(.text)
    strcat                                   0x08019c4d   Thumb Code    24  strcat.o(.text)
    strncpy                                  0x08019c65   Thumb Code    24  strncpy.o(.text)
    strlen                                   0x08019c7d   Thumb Code    14  strlen.o(.text)
    strncat                                  0x08019c8b   Thumb Code    40  strncat.o(.text)
    strcpy                                   0x08019cb3   Thumb Code    18  strcpy.o(.text)
    strncmp                                  0x08019cc5   Thumb Code    30  strncmp.o(.text)
    strtoul                                  0x08019ce3   Thumb Code   114  strtoul.o(.text)
    atoi                                     0x08019d55   Thumb Code    26  atoi.o(.text)
    atol                                     0x08019d6f   Thumb Code    26  atol.o(.text)
    __aeabi_fmul                             0x08019d89   Thumb Code   100  fmul.o(.text)
    __aeabi_dadd                             0x08019ded   Thumb Code   322  dadd.o(.text)
    __aeabi_dsub                             0x08019f2f   Thumb Code     6  dadd.o(.text)
    __aeabi_drsub                            0x08019f35   Thumb Code     6  dadd.o(.text)
    __aeabi_dmul                             0x08019f3b   Thumb Code   228  dmul.o(.text)
    __aeabi_ddiv                             0x0801a01f   Thumb Code   222  ddiv.o(.text)
    __ARM_scalbn                             0x0801a0fd   Thumb Code    46  dscalb.o(.text)
    scalbn                                   0x0801a0fd   Thumb Code     0  dscalb.o(.text)
    __aeabi_i2d                              0x0801a12b   Thumb Code    34  dflti.o(.text)
    __aeabi_ui2d                             0x0801a14d   Thumb Code    26  dfltui.o(.text)
    __aeabi_f2uiz                            0x0801a167   Thumb Code    40  ffixui.o(.text)
    __aeabi_d2iz                             0x0801a18f   Thumb Code    62  dfixi.o(.text)
    __aeabi_d2uiz                            0x0801a1cd   Thumb Code    50  dfixui.o(.text)
    __aeabi_f2d                              0x0801a1ff   Thumb Code    38  f2d.o(.text)
    __aeabi_cdcmpeq                          0x0801a225   Thumb Code     0  cdcmple.o(.text)
    __aeabi_cdcmple                          0x0801a225   Thumb Code    48  cdcmple.o(.text)
    __aeabi_cdrcmple                         0x0801a255   Thumb Code    48  cdrcmple.o(.text)
    __aeabi_d2f                              0x0801a285   Thumb Code    56  d2f.o(.text)
    __aeabi_uidiv                            0x0801a2bd   Thumb Code     0  uidiv.o(.text)
    __aeabi_uidivmod                         0x0801a2bd   Thumb Code    44  uidiv.o(.text)
    __aeabi_uldivmod                         0x0801a2e9   Thumb Code    98  uldiv.o(.text)
    __aeabi_llsl                             0x0801a34b   Thumb Code    30  llshl.o(.text)
    _ll_shift_l                              0x0801a34b   Thumb Code     0  llshl.o(.text)
    __aeabi_llsr                             0x0801a369   Thumb Code    32  llushr.o(.text)
    _ll_ushift_r                             0x0801a369   Thumb Code     0  llushr.o(.text)
    __aeabi_lasr                             0x0801a389   Thumb Code    36  llsshr.o(.text)
    _ll_sshift_r                             0x0801a389   Thumb Code     0  llsshr.o(.text)
    __rt_ctype_table                         0x0801a3ad   Thumb Code     4  ctype_o.o(.text)
    isspace                                  0x0801a3b5   Thumb Code    18  isspace_o.o(.text)
    _strtoul                                 0x0801a3c7   Thumb Code   158  _strtoul.o(.text)
    __strtod_int                             0x0801a49b   Thumb Code    88  strtod.o(.text)
    strtol                                   0x0801a501   Thumb Code   112  strtol.o(.text)
    __I$use$fp                               0x0801a571   Thumb Code     0  iusefp.o(.text)
    _float_round                             0x0801a571   Thumb Code    18  fepilogue.o(.text)
    _float_epilogue                          0x0801a583   Thumb Code    92  fepilogue.o(.text)
    _double_round                            0x0801a5df   Thumb Code    30  depilogue.o(.text)
    _double_epilogue                         0x0801a5fd   Thumb Code   156  depilogue.o(.text)
    _dsqrt                                   0x0801a699   Thumb Code   162  dsqrt.o(.text)
    __aeabi_d2ulz                            0x0801a73b   Thumb Code    48  dfixul.o(.text)
    __scatterload                            0x0801a76d   Thumb Code    28  init.o(.text)
    __scatterload_rt2                        0x0801a76d   Thumb Code     0  init.o(.text)
    _chval                                   0x0801a791   Thumb Code    28  _chval.o(.text)
    _scanf_real                              0x0801a8ad   Thumb Code     0  scanf_fp.o(.text)
    _scanf_really_real                       0x0801a8ad   Thumb Code   556  scanf_fp.o(.text)
    _sgetc                                   0x0801aae5   Thumb Code    30  _sgetc.o(.text)
    _sbackspace                              0x0801ab03   Thumb Code    34  _sgetc.o(.text)
    __aeabi_ul2d                             0x0801ab25   Thumb Code    24  dfltul.o(.text)
    __decompress                             0x0801ab3d   Thumb Code     0  __dczerorl2.o(.text)
    __decompress1                            0x0801ab3d   Thumb Code    86  __dczerorl2.o(.text)
    __0sprintf                               0x0801ab95   Thumb Code    34  printfa.o(i.__0sprintf)
    __1sprintf                               0x0801ab95   Thumb Code     0  printfa.o(i.__0sprintf)
    __2sprintf                               0x0801ab95   Thumb Code     0  printfa.o(i.__0sprintf)
    __c89sprintf                             0x0801ab95   Thumb Code     0  printfa.o(i.__0sprintf)
    sprintf                                  0x0801ab95   Thumb Code     0  printfa.o(i.__0sprintf)
    __0vsprintf                              0x0801abbd   Thumb Code    30  printfa.o(i.__0vsprintf)
    __1vsprintf                              0x0801abbd   Thumb Code     0  printfa.o(i.__0vsprintf)
    __2vsprintf                              0x0801abbd   Thumb Code     0  printfa.o(i.__0vsprintf)
    __c89vsprintf                            0x0801abbd   Thumb Code     0  printfa.o(i.__0vsprintf)
    vsprintf                                 0x0801abbd   Thumb Code     0  printfa.o(i.__0vsprintf)
    __ARM_fpclassify                         0x0801abe1   Thumb Code    40  fpclassify.o(i.__ARM_fpclassify)
    __aeabi_errno_addr                       0x0801ac09   Thumb Code     4  errno.o(i.__aeabi_errno_addr)
    __rt_errno_addr                          0x0801ac09   Thumb Code     0  errno.o(i.__aeabi_errno_addr)
    __ieee754_rem_pio2                       0x0801ac11   Thumb Code   828  rred.o(i.__ieee754_rem_pio2)
    __kernel_cos                             0x0801af99   Thumb Code   230  cos_i.o(i.__kernel_cos)
    __kernel_poly                            0x0801b095   Thumb Code   170  poly.o(i.__kernel_poly)
    __kernel_sin                             0x0801b141   Thumb Code   224  sin_i.o(i.__kernel_sin)
    __mathlib_dbl_divzero                    0x0801b22d   Thumb Code    12  dunder.o(i.__mathlib_dbl_divzero)
    __mathlib_dbl_infnan                     0x0801b23d   Thumb Code     6  dunder.o(i.__mathlib_dbl_infnan)
    __mathlib_dbl_infnan2                    0x0801b243   Thumb Code     4  dunder.o(i.__mathlib_dbl_infnan2)
    __mathlib_dbl_invalid                    0x0801b247   Thumb Code    12  dunder.o(i.__mathlib_dbl_invalid)
    __mathlib_dbl_overflow                   0x0801b253   Thumb Code    14  dunder.o(i.__mathlib_dbl_overflow)
    __mathlib_dbl_underflow                  0x0801b261   Thumb Code    10  dunder.o(i.__mathlib_dbl_underflow)
    __read_errno                             0x0801b271   Thumb Code     6  errno.o(i.__read_errno)
    __scatterload_copy                       0x0801b27d   Thumb Code    14  handlers.o(i.__scatterload_copy)
    __scatterload_null                       0x0801b28b   Thumb Code     2  handlers.o(i.__scatterload_null)
    __scatterload_zeroinit                   0x0801b28d   Thumb Code    14  handlers.o(i.__scatterload_zeroinit)
    __set_errno                              0x0801b29d   Thumb Code     6  errno.o(i.__set_errno)
    _is_digit                                0x0801b40d   Thumb Code    14  scanf_fp.o(i._is_digit)
    asin                                     0x0801bb55   Thumb Code   572  asin.o(i.asin)
    atof                                     0x0801bdc5   Thumb Code    42  atof.o(i.atof)
    cos                                      0x0801bdf1   Thumb Code   148  cos.o(i.cos)
    free                                     0x0801be8d   Thumb Code    76  malloc.o(i.free)
    malloc                                   0x0801bedd   Thumb Code    92  malloc.o(i.malloc)
    pow                                      0x0801bf49   Thumb Code  2512  pow.o(i.pow)
    sin                                      0x0801c921   Thumb Code   150  sin.o(i.sin)
    sqrt                                     0x0801c9c1   Thumb Code    76  sqrt.o(i.sqrt)
    strtod                                   0x0801ca0d   Thumb Code    28  strtod.o(i.strtod)
    ais_crc16_table                          0x0801cb2e   Data         512  common.o(.constdata)
    SingleTwo                                0x0801ce8d   Data          21  testing.o(.constdata)
    SingleT2                                 0x0801cea2   Data          20  testing.o(.constdata)
    SingleT3                                 0x0801ceb6   Data          21  testing.o(.constdata)
    STSignal_2                               0x0801cecb   Data          21  testing.o(.constdata)
    UBX_PRT_MSG_CFG_RXM_CONTINUOUS           0x0801cee0   Data           8  ubloxprotocol.o(.constdata)
    UBX_PRT_MSG_CFG_RXM_PSM                  0x0801cee8   Data           8  ubloxprotocol.o(.constdata)
    UBX_PRT_MSG_CFG_PM2_NORM                 0x0801cef0   Data          50  ubloxprotocol.o(.constdata)
    UBX_PRT_MSG_CFG_PM2_SAVE                 0x0801cf22   Data          50  ubloxprotocol.o(.constdata)
    UBX_PRT_MSG_CFG_CFG_DEFAULT              0x0801cf54   Data          19  ubloxprotocol.o(.constdata)
    UBX_PRT_MSG_CFG_CFG_SAVE                 0x0801cf67   Data          19  ubloxprotocol.o(.constdata)
    UBX_PRT_MSG_CFG_TP5_ACTIVE               0x0801cf7a   Data          38  ubloxprotocol.o(.constdata)
    UBX_PRT_MSG_CFG_TP5_INACTIVE             0x0801cfa0   Data          38  ubloxprotocol.o(.constdata)
    UBX_PRT_MSG_CFG_MSG_R0_GXVTG             0x0801cfc6   Data          14  ubloxprotocol.o(.constdata)
    UBX_PRT_MSG_CFG_MSG_R0_GXGGA             0x0801cfd4   Data          14  ubloxprotocol.o(.constdata)
    UBX_PRT_MSG_CFG_MSG_R0_GXGSA             0x0801cfe2   Data          14  ubloxprotocol.o(.constdata)
    UBX_PRT_MSG_CFG_MSG_R0_GXGSV             0x0801cff0   Data          14  ubloxprotocol.o(.constdata)
    UBX_PRT_MSG_CFG_MSG_R0_GXGLL             0x0801cffe   Data          14  ubloxprotocol.o(.constdata)
    UBX_PRT_MSG_CFG_MSG_R0_GXRMC             0x0801d00c   Data          14  ubloxprotocol.o(.constdata)
    UBX_PRT_MSG_CFG_MSG_R0_GXGBS             0x0801d01a   Data          14  ubloxprotocol.o(.constdata)
    UBX_PRT_MSG_CFG_MSG_R1_GXVTG             0x0801d028   Data          14  ubloxprotocol.o(.constdata)
    UBX_PRT_MSG_CFG_MSG_R1_GXGGA             0x0801d036   Data          14  ubloxprotocol.o(.constdata)
    UBX_PRT_MSG_CFG_MSG_R1_GXGSA             0x0801d044   Data          14  ubloxprotocol.o(.constdata)
    UBX_PRT_MSG_CFG_MSG_R1_GXGSV             0x0801d052   Data          14  ubloxprotocol.o(.constdata)
    UBX_PRT_MSG_CFG_MSG_R1_GXGLL             0x0801d060   Data          14  ubloxprotocol.o(.constdata)
    UBX_PRT_MSG_CFG_MSG_R1_GXRMC             0x0801d06e   Data          14  ubloxprotocol.o(.constdata)
    UBX_PRT_MSG_CFG_MSG_R1_GXGBS             0x0801d07c   Data          14  ubloxprotocol.o(.constdata)
    StSignal1                                0x0801d08a   Data          21  transceiverctrl.o(.constdata)
    StSignal2                                0x0801d09f   Data          21  transceiverctrl.o(.constdata)
    StSignal3                                0x0801d0b4   Data          21  transceiverctrl.o(.constdata)
    __mathlib_zero                           0x0801d200   Data           8  qnan.o(.constdata)
    __ctype_table                            0x0801d2f8   Data         129  ctype_o.o(.constdata)
    Region$$Table$$Base                      0x0801d5dc   Number         0  anon$$obj.o(Region$$Table)
    Region$$Table$$Limit                     0x0801d5fc   Number         0  anon$$obj.o(Region$$Table)
    HSEStartUpStatus                         0x20000000   Data           1  stm32f10x_target.o(.data)
    Para_Addr_IndexBuf                       0x20000004   Data          22  parastorage.o(.data)
    Para_MaxLen_IndexBuf                     0x2000001a   Data          22  parastorage.o(.data)
    Para_Default_IndexBuf                    0x20000030   Data          88  parastorage.o(.data)
    LocalClockTick                           0x20000088   Data           8  systemtick.o(.data)
    usGPSSynContinueTime                     0x200000a0   Data           2  gpsctrl.o(.data)
    LastGPS_Latitude                         0x200000a8   Data           8  gpsctrl.o(.data)
    LastGPS_Longitud                         0x200000b0   Data           8  gpsctrl.o(.data)
    NowGPS_Latitude                          0x200000b8   Data           8  gpsctrl.o(.data)
    NowGPS_Longitud                          0x200000c0   Data           8  gpsctrl.o(.data)
    ucStandbyWakeupFlg                       0x200000c8   Data           1  powerup.o(.data)
    ucStandbyWakeupDelayFlg                  0x200000c9   Data           1  powerup.o(.data)
    gslTimToRtcCnt_2                         0x200000cc   Data           4  sleepctrl.o(.data)
    gslRtcToTimCnt_2                         0x200000d0   Data           4  sleepctrl.o(.data)
    gslTimToRtcIdleCnt_2                     0x200000d4   Data           4  sleepctrl.o(.data)
    struMsgTestPara                          0x200000d8   Data           1  testing.o(.data)
    RxTestInstance                           0x200000d9   Data           1  testing.o(.data)
    STM32_FLASH_Addr_IndexBuf                0x200000f0   Data          84  flashctrl.o(.data)
    STM32_FLASH_MaxLen_IndexBuf              0x20000144   Data          21  flashctrl.o(.data)
    STM32_FLASH_Default_IndexBuf             0x2000015c   Data          84  flashctrl.o(.data)
    ucADC1_ConvFinishFlag                    0x200001b0   Data           1  adc.o(.data)
    guiADC1_14_Val                           0x200001b2   Data           2  adc.o(.data)
    ssADC1_CalValue                          0x200001b4   Data           2  adc.o(.data)
    arrADC1_Val                              0x200001b6   Data           8  adc.o(.data)
    arrBKP_DR_INDEX                          0x200001be   Data          84  bkpregister.o(.data)
    GpsTimSaveFlag                           0x20000214   Data           1  gps.o(.data)
    GpsPulseEn                               0x20000215   Data           1  gps.o(.data)
    TimCntSave                               0x20000218   Data           4  gps.o(.data)
    RtcCntSave                               0x2000021c   Data           4  gps.o(.data)
    GpsTimCountSave                          0x20000220   Data           4  gps.o(.data)
    GpsRtcCountSave                          0x20000224   Data           4  gps.o(.data)
    struPinPulsePara                         0x20000228   Data           8  led.o(.data)
    RFPara                                   0x20000230   Data           1  power.o(.data)
    PowerPara                                0x20000231   Data           2  power.o(.data)
    RtcHighCountFlag                         0x20000238   Data           1  rtc.o(.data)
    RtcPhaseAdjust1                          0x2000023a   Data           2  rtc.o(.data)
    RtcPhaseAdjust10                         0x2000023c   Data           2  rtc.o(.data)
    RtcPhaseAdjust100                        0x2000023e   Data           2  rtc.o(.data)
    RtcCntAdjust1                            0x20000240   Data           2  rtc.o(.data)
    RtcCntAdjust10                           0x20000242   Data           2  rtc.o(.data)
    RtcCntAdjust100                          0x20000244   Data           2  rtc.o(.data)
    RTCIntCount                              0x20000248   Data           4  rtc.o(.data)
    GpsRtcCount                              0x2000024c   Data           4  rtc.o(.data)
    RtcSubCnt1                               0x20000250   Data           4  rtc.o(.data)
    RtcSubCnt2                               0x20000254   Data           4  rtc.o(.data)
    RtcSubCnt3                               0x20000258   Data           4  rtc.o(.data)
    RtcCnt                                   0x2000025c   Data           4  rtc.o(.data)
    RtcCnt1s                                 0x20000260   Data           4  rtc.o(.data)
    RtcCnt10s                                0x20000264   Data           4  rtc.o(.data)
    RtcCnt100s                               0x20000268   Data           4  rtc.o(.data)
    RtcTimPhaseCnt1                          0x20000270   Data           8  rtc.o(.data)
    RtcTimPhaseCnt10                         0x20000278   Data           8  rtc.o(.data)
    RtcTimPhaseCnt100                        0x20000280   Data           8  rtc.o(.data)
    struRtcPara                              0x20000288   Data           8  rtc.o(.data)
    gucFSKDataXmtEn                          0x20000290   Data           1  tim.o(.data)
    gucFetchFirstFskDataEn                   0x20000291   Data           1  tim.o(.data)
    capture                                  0x20000292   Data           2  tim.o(.data)
    CCR1_Val                                 0x20000294   Data           2  tim.o(.data)
    CCR2_Val                                 0x20000296   Data           2  tim.o(.data)
    CCR3_Val                                 0x20000298   Data           2  tim.o(.data)
    gsiPhaseCnt                              0x2000029a   Data           2  tim.o(.data)
    gsiSlotCnt                               0x2000029c   Data           2  tim.o(.data)
    TimAdjust1                               0x2000029e   Data           2  tim.o(.data)
    TimAdjust10                              0x200002a0   Data           2  tim.o(.data)
    TimAdjust100                             0x200002a2   Data           2  tim.o(.data)
    gslFrameCnt                              0x200002a4   Data           4  tim.o(.data)
    TimSubCnt1                               0x200002a8   Data           4  tim.o(.data)
    TimSubCnt2                               0x200002ac   Data           4  tim.o(.data)
    TimSubCnt3                               0x200002b0   Data           4  tim.o(.data)
    GpsTimCount                              0x200002b4   Data           4  tim.o(.data)
    TimCnt                                   0x200002b8   Data           4  tim.o(.data)
    TimCnt1s                                 0x200002bc   Data           4  tim.o(.data)
    TimCnt10s                                0x200002c0   Data           4  tim.o(.data)
    TimCnt100s                               0x200002c4   Data           4  tim.o(.data)
    Uart1Config                              0x200002c8   Data           8  usart.o(.data)
    Is_Feed_Dog                              0x200002d0   Data           1  wdg.o(.data)
    SI446X_FRE_BASE                          0x200002d4   Data           4  si446x.o(.data)
    DebugOutputFlag                          0x200004d1   Data           1  debug.o(.data)
    __microlib_freelist                      0x200004ec   Data           4  mvars.o(.data)
    __microlib_freelist_initialised          0x200004f0   Data           4  mvars.o(.data)
    pGpsCell                                 0x20002b38   Data         208  ais_msgmodu.o(.bss)
    AisDiSenQue                              0x20002c08   Data        1332  aisdigitalinterface.o(.bss)
    ABMPara                                  0x2000313c   Data         176  aisdigitalinterface.o(.bss)
    BBMPara                                  0x200031ec   Data         174  aisdigitalinterface.o(.bss)
    AISMsgBinBuff_1                          0x2000329c   Data          22  aismsgmodule.o(.bss)
    AISMsgBinBuff_2                          0x200032b2   Data          22  aismsgmodule.o(.bss)
    AISMsgBinBuff_3                          0x200032c8   Data          22  aismsgmodule.o(.bss)
    AISMsgBinBuff_4                          0x200032de   Data          22  aismsgmodule.o(.bss)
    AISMsgBinBuff_5                          0x200032f4   Data          54  aismsgmodule.o(.bss)
    AISMsgBinBuff_6                          0x2000332a   Data         127  aismsgmodule.o(.bss)
    AISMsgBinBuff_7                          0x200033a9   Data          22  aismsgmodule.o(.bss)
    AISMsgBinBuff_8                          0x200033bf   Data         127  aismsgmodule.o(.bss)
    AISMsgBinBuff_9                          0x2000343e   Data          22  aismsgmodule.o(.bss)
    AISMsgBinBuff_10                         0x20003454   Data          10  aismsgmodule.o(.bss)
    AISMsgBinBuff_11                         0x2000345e   Data          22  aismsgmodule.o(.bss)
    AISMsgBinBuff_12                         0x20003474   Data         127  aismsgmodule.o(.bss)
    AISMsgBinBuff_13                         0x200034f3   Data          22  aismsgmodule.o(.bss)
    AISMsgBinBuff_14                         0x20003509   Data         127  aismsgmodule.o(.bss)
    AISMsgBinBuff_15                         0x20003588   Data          21  aismsgmodule.o(.bss)
    AISMsgBinBuff_16                         0x2000359d   Data          19  aismsgmodule.o(.bss)
    AISMsgBinBuff_17                         0x200035b0   Data         103  aismsgmodule.o(.bss)
    AISMsgBinBuff_18                         0x20003617   Data          22  aismsgmodule.o(.bss)
    AISMsgBinBuff_19                         0x2000362d   Data          40  aismsgmodule.o(.bss)
    AISMsgBinBuff_20                         0x20003655   Data          21  aismsgmodule.o(.bss)
    AISMsgBinBuff_21                         0x2000366a   Data          46  aismsgmodule.o(.bss)
    AISMsgBinBuff_22                         0x20003698   Data          22  aismsgmodule.o(.bss)
    AISMsgBinBuff_23                         0x200036ae   Data          21  aismsgmodule.o(.bss)
    AISMsgBinBuff_24A                        0x200036c3   Data          21  aismsgmodule.o(.bss)
    AISMsgBinBuff_24B                        0x200036d8   Data          22  aismsgmodule.o(.bss)
    AISMsgBinBuff_25                         0x200036ee   Data          22  aismsgmodule.o(.bss)
    AISMsgBinBuff_26                         0x20003704   Data         134  aismsgmodule.o(.bss)
    AISMsgBinBuff_27                         0x2000378a   Data          13  aismsgmodule.o(.bss)
    AISMsg_1                                 0x20003798   Data          40  aismsgmodule.o(.bss)
    AISMsg_2                                 0x200037c0   Data          40  aismsgmodule.o(.bss)
    AISMsg_3                                 0x200037e8   Data          40  aismsgmodule.o(.bss)
    AISMsg_4                                 0x20003810   Data          36  aismsgmodule.o(.bss)
    AISMsg_5                                 0x20003834   Data          80  aismsgmodule.o(.bss)
    AISMsg_6                                 0x20003884   Data         140  aismsgmodule.o(.bss)
    AISMsg_7                                 0x20003910   Data          40  aismsgmodule.o(.bss)
    AISMsg_8                                 0x20003938   Data         132  aismsgmodule.o(.bss)
    AISMsg_9                                 0x200039bc   Data          40  aismsgmodule.o(.bss)
    AISMsg_10                                0x200039e4   Data          12  aismsgmodule.o(.bss)
    AISMsg_11                                0x200039f0   Data          36  aismsgmodule.o(.bss)
    AISMsg_12                                0x20003a14   Data         176  aismsgmodule.o(.bss)
    AISMsg_13                                0x20003ac4   Data          40  aismsgmodule.o(.bss)
    AISMsg_14                                0x20003aec   Data         172  aismsgmodule.o(.bss)
    AISMsg_15                                0x20003b98   Data          32  aismsgmodule.o(.bss)
    AISMsg_16                                0x20003bb8   Data          28  aismsgmodule.o(.bss)
    AISMsg_17                                0x20003bd4   Data         144  aismsgmodule.o(.bss)
    AISMsg_18                                0x20003c64   Data          40  aismsgmodule.o(.bss)
    AISMsg_19                                0x20003c8c   Data          56  aismsgmodule.o(.bss)
    AISMsg_20                                0x20003cc4   Data          36  aismsgmodule.o(.bss)
    AISMsg_21                                0x20003ce8   Data          68  aismsgmodule.o(.bss)
    AISMsg_22                                0x20003d2c   Data          36  aismsgmodule.o(.bss)
    AISMsg_23                                0x20003d50   Data          32  aismsgmodule.o(.bss)
    AISMsg_24A                               0x20003d70   Data          32  aismsgmodule.o(.bss)
    AISMsg_24B                               0x20003d90   Data          36  aismsgmodule.o(.bss)
    AISMsg_25                                0x20003db4   Data          36  aismsgmodule.o(.bss)
    AISMsg_26                                0x20003dd8   Data         156  aismsgmodule.o(.bss)
    AISMsg_27                                0x20003e74   Data          28  aismsgmodule.o(.bss)
    DevStaticPara                            0x200080dc   Data          28  deviceinfo.o(.bss)
    DevDynamicPara                           0x200080f8   Data          28  deviceinfo.o(.bss)
    AisStaticPara                            0x20008114   Data          92  aisinfo.o(.bss)
    AisDynamicPara                           0x20008170   Data          32  aisinfo.o(.bss)
    TimAdjustPara                            0x20008ba4   Data          68  adjust.o(.bss)
    GpsPara                                  0x20008be8   Data         208  gpsctrl.o(.bss)
    GpsCtrlPara                              0x20008cb8   Data          84  gpsctrl.o(.bss)
    GpsSynCell                               0x20008d0c   Data          52  gpsctrl.o(.bss)
    GPSCtrlMsgTestPara                       0x20008d40   Data          12  gpsctrl.o(.bss)
    GpsSelfCheckInst                         0x20008d4c   Data          24  gpsctrl.o(.bss)
    LEDCtrlPara                              0x20008d64   Data          88  ledctrl.o(.bss)
    SleepCtrlPara                            0x20008dbc   Data          44  sleepctrl.o(.bss)
    TestCtrlPara                             0x20008de8   Data         120  testing.o(.bss)
    BatteryTestCtrlPara                      0x20008e60   Data          28  testing.o(.bss)
    MsgTestCtrlPara                          0x20008e7c   Data          24  testing.o(.bss)
    SleepTestCtrlPara                        0x20008e94   Data          12  testing.o(.bss)
    TransceiverTest1                         0x20009810   Data         184  transceiverctrl.o(.bss)
    TransceiverTest2                         0x200098c8   Data         184  transceiverctrl.o(.bss)
    TransceiverTxCtrlInstance                0x20009980   Data         184  transceiverctrl.o(.bss)
    RecordCloseTimeTask                      0x20009a6c   Data          12  taskmanager.o(.bss)
    UpdateRecStationTask                     0x20009a78   Data          12  taskmanager.o(.bss)
    arrBKPDRData                             0x20009a84   Data          84  bkpregister.o(.bss)
    Uart2TxFIFO                              0x20009ad8   Data        1030  gps.o(.bss)
    Uart2RxFIFO                              0x20009ede   Data        1036  gps.o(.bss)
    struRtcTimPhase1                         0x2000a2f0   Data          40  rtc.o(.bss)
    Uart1TxFIFO                              0x2000a318   Data        1030  usart.o(.bss)
    Uart1RxFIFO                              0x2000a71e   Data        1036  usart.o(.bss)
    PTT_OBJ                                  0x2000ae6c   Data          36  ptt_lnw.o(.bss)
    __heap_base                              0x2000ae90   Data           0  stm32f10x_startup.o(HEAP)
    __heap_limit                             0x2000b290   Data           0  stm32f10x_startup.o(HEAP)
    __initial_sp                             0x2000b690   Data           0  stm32f10x_startup.o(STACK)



==============================================================================

Memory Map of the image

  Image Entry point : 0x08000131

  Load Region LR_IROM1 (Base: 0x08000000, Size: 0x0001daf4, Max: 0x00040000, ABSOLUTE, COMPRESSED[0x0001d900])

    Execution Region ER_IROM1 (Base: 0x08000000, Size: 0x0001d5fc, Max: 0x00040000, ABSOLUTE)

    Base Addr    Size         Type   Attr      Idx    E Section Name        Object

    0x08000000   0x00000130   Data   RO          324    RESET               stm32f10x_startup.o
    0x08000130   0x00000000   Code   RO         1804  * .ARM.Collect$$$$00000000  mc_w.l(entry.o)
    0x08000130   0x00000004   Code   RO         2184    .ARM.Collect$$$$00000001  mc_w.l(entry2.o)
    0x08000134   0x00000004   Code   RO         2187    .ARM.Collect$$$$00000004  mc_w.l(entry5.o)
    0x08000138   0x00000000   Code   RO         2189    .ARM.Collect$$$$00000008  mc_w.l(entry7b.o)
    0x08000138   0x00000000   Code   RO         2191    .ARM.Collect$$$$0000000A  mc_w.l(entry8b.o)
    0x08000138   0x00000008   Code   RO         2192    .ARM.Collect$$$$0000000B  mc_w.l(entry9a.o)
    0x08000140   0x00000000   Code   RO         2194    .ARM.Collect$$$$0000000D  mc_w.l(entry10a.o)
    0x08000140   0x00000000   Code   RO         2196    .ARM.Collect$$$$0000000F  mc_w.l(entry11a.o)
    0x08000140   0x00000004   Code   RO         2185    .ARM.Collect$$$$00002712  mc_w.l(entry2.o)
    0x08000144   0x00000002   Code   RO          299    .emb_text           stm32f10x_it.o
    0x08000146   0x00000002   PAD
    0x08000148   0x00000298   Code   RO            6    .text               stm32f10x_target.o
    0x080003e0   0x000000f8   Code   RO          300    .text               stm32f10x_it.o
    0x080004d8   0x00000008   Code   RO          325    .text               stm32f10x_startup.o
    0x080004e0   0x000000d8   Code   RO          335    .text               ioctrl.o
    0x080005b8   0x000004f0   Code   RO          356    .text               parastorage.o
    0x08000aa8   0x00000012   Code   RO          378    .text               rxtxctrl.o
    0x08000aba   0x00000002   PAD
    0x08000abc   0x00000060   Code   RO          400    .text               systemtick.o
    0x08000b1c   0x00000cac   Code   RO          420    .text               datalinkservice.o
    0x080017c8   0x000004b4   Code   RO          435    .text               linkmanagemententity.o
    0x08001c7c   0x000000ac   Code   RO          450    .text               physicallayer.o
    0x08001d28   0x00000e94   Code   RO          465    .text               ais_msgmodu.o
    0x08002bbc   0x00001260   Code   RO          487    .text               aisdigitalinterface.o
    0x08003e1c   0x000040cc   Code   RO          508    .text               aismsgmodule.o
    0x08007ee8   0x0000035c   Code   RO          529    .text               slot.o
    0x08008244   0x000014a4   Code   RO          543    .text               tdma.o
    0x080096e8   0x0000008c   Code   RO          560    .text               deviceinfo.o
    0x08009774   0x00000178   Code   RO          578    .text               aisinfo.o
    0x080098ec   0x0000130c   Code   RO          596    .text               msgmanager.o
    0x0800abf8   0x00000026   Code   RO          612    .text               aisptlmain.o
    0x0800ac1e   0x00000002   PAD
    0x0800ac20   0x00000720   Code   RO          624    .text               adjust.o
    0x0800b340   0x000004a8   Code   RO          649    .text               common.o
    0x0800b7e8   0x00001908   Code   RO          665    .text               gpsctrl.o
    0x0800d0f0   0x00000074   Code   RO          703    .text               initial.o
    0x0800d164   0x00000668   Code   RO          749    .text               ledctrl.o
    0x0800d7cc   0x00000118   Code   RO          769    .text               main.o
    0x0800d8e4   0x00000618   Code   RO          815    .text               powerup.o
    0x0800defc   0x000001a0   Code   RO          837    .text               sleepctrl.o
    0x0800e09c   0x00000470   Code   RO          866    .text               testing.o
    0x0800e50c   0x000027e0   Code   RO          892    .text               uartmsg.o
    0x08010cec   0x00000690   Code   RO          924    .text               ubloxprotocol.o
    0x0801137c   0x00000738   Code   RO          950    .text               transceiverctrl.o
    0x08011ab4   0x00000956   Code   RO          967    .text               selfcheck.o
    0x0801240a   0x00000002   PAD
    0x0801240c   0x00000120   Code   RO          983    .text               rflinkselfcheck.o
    0x0801252c   0x0000020c   Code   RO          996    .text               taskmanager.o
    0x08012738   0x00000380   Code   RO         1078    .text               flashctrl.o
    0x08012ab8   0x0000027c   Code   RO         1094    .text               encrypt.o
    0x08012d34   0x0000042e   Code   RO         1107    .text               24c02.o
    0x08013162   0x00000002   PAD
    0x08013164   0x00000224   Code   RO         1125    .text               adc.o
    0x08013388   0x000000d0   Code   RO         1144    .text               bkpregister.o
    0x08013458   0x00000080   Code   RO         1164    .text               dac.o
    0x080134d8   0x0000024c   Code   RO         1180    .text               gps.o
    0x08013724   0x00000100   Code   RO         1200    .text               led.o
    0x08013824   0x0000013c   Code   RO         1218    .text               power.o
    0x08013960   0x000008f8   Code   RO         1235    .text               rtc.o
    0x08014258   0x00000068   Code   RO         1257    .text               rxtx.o
    0x080142c0   0x00000194   Code   RO         1269    .text               spi.o
    0x08014454   0x00000694   Code   RO         1281    .text               tim.o
    0x08014ae8   0x000004d8   Code   RO         1304    .text               usart.o
    0x08014fc0   0x0000004c   Code   RO         1332    .text               wdg.o
    0x0801500c   0x00000264   Code   RO         1350    .text               gpiospi.o
    0x08015270   0x00002068   Code   RO         1364    .text               si446x.o
    0x080172d8   0x00000190   Code   RO         1398    .text               debug.o
    0x08017468   0x000000b0   Code   RO         1422    .text               misc.o
    0x08017518   0x00000330   Code   RO         1434    .text               stm32f10x_adc.o
    0x08017848   0x00000098   Code   RO         1446    .text               stm32f10x_bkp.o
    0x080178e0   0x000000fc   Code   RO         1503    .text               stm32f10x_dac.o
    0x080179dc   0x00000028   Code   RO         1515    .text               stm32f10x_dbgmcu.o
    0x08017a04   0x000001c8   Code   RO         1527    .text               stm32f10x_dma.o
    0x08017bcc   0x000000e8   Code   RO         1539    .text               stm32f10x_exti.o
    0x08017cb4   0x0000047c   Code   RO         1551    .text               stm32f10x_flash_1.o
    0x08018130   0x0000026c   Code   RO         1579    .text               stm32f10x_gpio.o
    0x0801839c   0x0000003c   Code   RO         1606    .text               stm32f10x_iwdg.o
    0x080183d8   0x000000ac   Code   RO         1618    .text               stm32f10x_pwr.o
    0x08018484   0x000002c8   Code   RO         1630    .text               stm32f10x_rcc.o
    0x0801874c   0x00000110   Code   RO         1644    .text               stm32f10x_rtc.o
    0x0801885c   0x00000274   Code   RO         1669    .text               stm32f10x_spi.o
    0x08018ad0   0x00000af4   Code   RO         1681    .text               stm32f10x_tim.o
    0x080195c4   0x00000328   Code   RO         1694    .text               stm32f10x_usart.o
    0x080198ec   0x0000003c   Code   RO         1721    .text               migrate.o
    0x08019928   0x000002b8   Code   RO         1733    .text               ptt_lnw.o
    0x08019be0   0x00000024   Code   RO         1807    .text               mc_w.l(rand.o)
    0x08019c04   0x00000024   Code   RO         1810    .text               mc_w.l(memcpya.o)
    0x08019c28   0x00000024   Code   RO         1812    .text               mc_w.l(memseta.o)
    0x08019c4c   0x00000018   Code   RO         1814    .text               mc_w.l(strcat.o)
    0x08019c64   0x00000018   Code   RO         1816    .text               mc_w.l(strncpy.o)
    0x08019c7c   0x0000000e   Code   RO         1818    .text               mc_w.l(strlen.o)
    0x08019c8a   0x00000028   Code   RO         1820    .text               mc_w.l(strncat.o)
    0x08019cb2   0x00000012   Code   RO         1822    .text               mc_w.l(strcpy.o)
    0x08019cc4   0x0000001e   Code   RO         1824    .text               mc_w.l(strncmp.o)
    0x08019ce2   0x00000072   Code   RO         2117    .text               mc_w.l(strtoul.o)
    0x08019d54   0x0000001a   Code   RO         2119    .text               mc_w.l(atoi.o)
    0x08019d6e   0x0000001a   Code   RO         2121    .text               mc_w.l(atol.o)
    0x08019d88   0x00000064   Code   RO         2123    .text               mf_w.l(fmul.o)
    0x08019dec   0x0000014e   Code   RO         2125    .text               mf_w.l(dadd.o)
    0x08019f3a   0x000000e4   Code   RO         2127    .text               mf_w.l(dmul.o)
    0x0801a01e   0x000000de   Code   RO         2129    .text               mf_w.l(ddiv.o)
    0x0801a0fc   0x0000002e   Code   RO         2131    .text               mf_w.l(dscalb.o)
    0x0801a12a   0x00000022   Code   RO         2133    .text               mf_w.l(dflti.o)
    0x0801a14c   0x0000001a   Code   RO         2135    .text               mf_w.l(dfltui.o)
    0x0801a166   0x00000028   Code   RO         2137    .text               mf_w.l(ffixui.o)
    0x0801a18e   0x0000003e   Code   RO         2139    .text               mf_w.l(dfixi.o)
    0x0801a1cc   0x00000032   Code   RO         2141    .text               mf_w.l(dfixui.o)
    0x0801a1fe   0x00000026   Code   RO         2143    .text               mf_w.l(f2d.o)
    0x0801a224   0x00000030   Code   RO         2145    .text               mf_w.l(cdcmple.o)
    0x0801a254   0x00000030   Code   RO         2147    .text               mf_w.l(cdrcmple.o)
    0x0801a284   0x00000038   Code   RO         2149    .text               mf_w.l(d2f.o)
    0x0801a2bc   0x0000002c   Code   RO         2201    .text               mc_w.l(uidiv.o)
    0x0801a2e8   0x00000062   Code   RO         2203    .text               mc_w.l(uldiv.o)
    0x0801a34a   0x0000001e   Code   RO         2205    .text               mc_w.l(llshl.o)
    0x0801a368   0x00000020   Code   RO         2207    .text               mc_w.l(llushr.o)
    0x0801a388   0x00000024   Code   RO         2209    .text               mc_w.l(llsshr.o)
    0x0801a3ac   0x00000008   Code   RO         2211    .text               mc_w.l(ctype_o.o)
    0x0801a3b4   0x00000012   Code   RO         2233    .text               mc_w.l(isspace_o.o)
    0x0801a3c6   0x0000009e   Code   RO         2248    .text               mc_w.l(_strtoul.o)
    0x0801a464   0x0000009c   Code   RO         2250    .text               mc_w.l(strtod.o)
    0x0801a500   0x00000070   Code   RO         2252    .text               mc_w.l(strtol.o)
    0x0801a570   0x00000000   Code   RO         2254    .text               mc_w.l(iusefp.o)
    0x0801a570   0x0000006e   Code   RO         2255    .text               mf_w.l(fepilogue.o)
    0x0801a5de   0x000000ba   Code   RO         2257    .text               mf_w.l(depilogue.o)
    0x0801a698   0x000000a2   Code   RO         2259    .text               mf_w.l(dsqrt.o)
    0x0801a73a   0x00000030   Code   RO         2261    .text               mf_w.l(dfixul.o)
    0x0801a76a   0x00000002   PAD
    0x0801a76c   0x00000024   Code   RO         2263    .text               mc_w.l(init.o)
    0x0801a790   0x0000001c   Code   RO         2268    .text               mc_w.l(_chval.o)
    0x0801a7ac   0x00000338   Code   RO         2270    .text               mc_w.l(scanf_fp.o)
    0x0801aae4   0x00000040   Code   RO         2274    .text               mc_w.l(_sgetc.o)
    0x0801ab24   0x00000018   Code   RO         2280    .text               mf_w.l(dfltul.o)
    0x0801ab3c   0x00000056   Code   RO         2290    .text               mc_w.l(__dczerorl2.o)
    0x0801ab92   0x00000002   PAD
    0x0801ab94   0x00000028   Code   RO         2063    i.__0sprintf        mc_w.l(printfa.o)
    0x0801abbc   0x00000024   Code   RO         2067    i.__0vsprintf       mc_w.l(printfa.o)
    0x0801abe0   0x00000028   Code   RO         2168    i.__ARM_fpclassify  m_ws.l(fpclassify.o)
    0x0801ac08   0x00000008   Code   RO         2241    i.__aeabi_errno_addr  mc_w.l(errno.o)
    0x0801ac10   0x00000388   Code   RO         2173    i.__ieee754_rem_pio2  m_ws.l(rred.o)
    0x0801af98   0x000000fc   Code   RO         2151    i.__kernel_cos      m_ws.l(cos_i.o)
    0x0801b094   0x000000aa   Code   RO         2170    i.__kernel_poly     m_ws.l(poly.o)
    0x0801b13e   0x00000002   PAD
    0x0801b140   0x000000ec   Code   RO         2178    i.__kernel_sin      m_ws.l(sin_i.o)
    0x0801b22c   0x00000010   Code   RO         2154    i.__mathlib_dbl_divzero  m_ws.l(dunder.o)
    0x0801b23c   0x00000006   Code   RO         2155    i.__mathlib_dbl_infnan  m_ws.l(dunder.o)
    0x0801b242   0x00000004   Code   RO         2156    i.__mathlib_dbl_infnan2  m_ws.l(dunder.o)
    0x0801b246   0x0000000c   Code   RO         2157    i.__mathlib_dbl_invalid  m_ws.l(dunder.o)
    0x0801b252   0x0000000e   Code   RO         2158    i.__mathlib_dbl_overflow  m_ws.l(dunder.o)
    0x0801b260   0x00000010   Code   RO         2160    i.__mathlib_dbl_underflow  m_ws.l(dunder.o)
    0x0801b270   0x0000000c   Code   RO         2242    i.__read_errno      mc_w.l(errno.o)
    0x0801b27c   0x0000000e   Code   RO         2284    i.__scatterload_copy  mc_w.l(handlers.o)
    0x0801b28a   0x00000002   Code   RO         2285    i.__scatterload_null  mc_w.l(handlers.o)
    0x0801b28c   0x0000000e   Code   RO         2286    i.__scatterload_zeroinit  mc_w.l(handlers.o)
    0x0801b29a   0x00000002   PAD
    0x0801b29c   0x0000000c   Code   RO         2243    i.__set_errno       mc_w.l(errno.o)
    0x0801b2a8   0x00000164   Code   RO         2068    i._fp_digits        mc_w.l(printfa.o)
    0x0801b40c   0x0000000e   Code   RO         2272    i._is_digit         mc_w.l(scanf_fp.o)
    0x0801b41a   0x00000002   PAD
    0x0801b41c   0x000006dc   Code   RO         2069    i._printf_core      mc_w.l(printfa.o)
    0x0801baf8   0x00000024   Code   RO         2070    i._printf_post_padding  mc_w.l(printfa.o)
    0x0801bb1c   0x0000002e   Code   RO         2071    i._printf_pre_padding  mc_w.l(printfa.o)
    0x0801bb4a   0x0000000a   Code   RO         2073    i._sputc            mc_w.l(printfa.o)
    0x0801bb54   0x00000270   Code   RO         1753    i.asin              m_ws.l(asin.o)
    0x0801bdc4   0x0000002a   Code   RO         1763    i.atof              m_ws.l(atof.o)
    0x0801bdee   0x00000002   PAD
    0x0801bdf0   0x0000009c   Code   RO         1767    i.cos               m_ws.l(cos.o)
    0x0801be8c   0x00000050   Code   RO         2089    i.free              mc_w.l(malloc.o)
    0x0801bedc   0x0000006c   Code   RO         2090    i.malloc            mc_w.l(malloc.o)
    0x0801bf48   0x000009d8   Code   RO         1775    i.pow               m_ws.l(pow.o)
    0x0801c920   0x000000a0   Code   RO         1785    i.sin               m_ws.l(sin.o)
    0x0801c9c0   0x0000004c   Code   RO         1793    i.sqrt              m_ws.l(sqrt.o)
    0x0801ca0c   0x0000001c   Code   RO         1801    i.strtod            m_ws.l(strtod.o)
    0x0801ca28   0x00000013   Data   RO          489    .constdata          aisdigitalinterface.o
    0x0801ca3b   0x00000044   Data   RO          545    .constdata          tdma.o
    0x0801ca7f   0x000000af   Data   RO          598    .constdata          msgmanager.o
    0x0801cb2e   0x00000200   Data   RO          650    .constdata          common.o
    0x0801cd2e   0x0000000f   Data   RO          667    .constdata          gpsctrl.o
    0x0801cd3d   0x00000150   Data   RO          751    .constdata          ledctrl.o
    0x0801ce8d   0x00000053   Data   RO          868    .constdata          testing.o
    0x0801cee0   0x000001aa   Data   RO          926    .constdata          ubloxprotocol.o
    0x0801d08a   0x00000056   Data   RO          952    .constdata          transceiverctrl.o
    0x0801d0e0   0x00000011   Data   RO          998    .constdata          taskmanager.o
    0x0801d0f1   0x00000007   PAD
    0x0801d0f8   0x00000050   Data   RO         1754    .constdata          m_ws.l(asin.o)
    0x0801d148   0x00000088   Data   RO         1776    .constdata          m_ws.l(pow.o)
    0x0801d1d0   0x00000030   Data   RO         2152    .constdata          m_ws.l(cos_i.o)
    0x0801d200   0x00000008   Data   RO         2172    .constdata          m_ws.l(qnan.o)
    0x0801d208   0x000000c8   Data   RO         2175    .constdata          m_ws.l(rred.o)
    0x0801d2d0   0x00000028   Data   RO         2179    .constdata          m_ws.l(sin_i.o)
    0x0801d2f8   0x00000081   Data   RO         2212    .constdata          mc_w.l(ctype_o.o)
    0x0801d379   0x00000003   PAD
    0x0801d37c   0x00000004   Data   RO         2213    .constdata          mc_w.l(ctype_o.o)
    0x0801d380   0x00000146   Data   RO          546    .conststring        tdma.o
    0x0801d4c6   0x00000002   PAD
    0x0801d4c8   0x00000086   Data   RO          668    .conststring        gpsctrl.o
    0x0801d54e   0x00000002   PAD
    0x0801d550   0x00000047   Data   RO          871    .conststring        testing.o
    0x0801d597   0x00000001   PAD
    0x0801d598   0x00000044   Data   RO          953    .conststring        transceiverctrl.o
    0x0801d5dc   0x00000020   Data   RO         2282    Region$$Table       anon$$obj.o


    Execution Region RW_IRAM1 (Base: 0x20000000, Size: 0x0000b690, Max: 0x0000c000, ABSOLUTE, COMPRESSED[0x00000304])

    Base Addr    Size         Type   Attr      Idx    E Section Name        Object

    0x20000000   0x00000001   Data   RW            8    .data               stm32f10x_target.o
    0x20000001   0x00000003   PAD
    0x20000004   0x00000084   Data   RW          357    .data               parastorage.o
    0x20000088   0x00000008   Data   RW          402    .data               systemtick.o
    0x20000090   0x00000006   Data   RW          451    .data               physicallayer.o
    0x20000096   0x00000003   Data   RW          470    .data               ais_msgmodu.o
    0x20000099   0x00000002   Data   RW          490    .data               aisdigitalinterface.o
    0x2000009b   0x00000005   PAD
    0x200000a0   0x00000028   Data   RW          669    .data               gpsctrl.o
    0x200000c8   0x00000002   Data   RW          816    .data               powerup.o
    0x200000ca   0x00000002   PAD
    0x200000cc   0x00000004   Data   RW          839    .data               sleepctrl.o
    0x200000d0   0x00000004   Data   RW          840    .data               sleepctrl.o
    0x200000d4   0x00000004   Data   RW          841    .data               sleepctrl.o
    0x200000d8   0x00000001   Data   RW          873    .data               testing.o
    0x200000d9   0x00000001   Data   RW          874    .data               testing.o
    0x200000da   0x00000015   Data   RW          969    .data               selfcheck.o
    0x200000ef   0x00000001   PAD
    0x200000f0   0x000000c0   Data   RW         1079    .data               flashctrl.o
    0x200001b0   0x0000000e   Data   RW         1126    .data               adc.o
    0x200001be   0x00000054   Data   RW         1146    .data               bkpregister.o
    0x20000212   0x00000002   PAD
    0x20000214   0x00000014   Data   RW         1182    .data               gps.o
    0x20000228   0x00000008   Data   RW         1201    .data               led.o
    0x20000230   0x00000003   Data   RW         1220    .data               power.o
    0x20000233   0x00000005   PAD
    0x20000238   0x00000058   Data   RW         1237    .data               rtc.o
    0x20000290   0x00000038   Data   RW         1282    .data               tim.o
    0x200002c8   0x00000008   Data   RW         1306    .data               usart.o
    0x200002d0   0x00000001   Data   RW         1333    .data               wdg.o
    0x200002d1   0x00000003   PAD
    0x200002d4   0x000001fd   Data   RW         1366    .data               si446x.o
    0x200004d1   0x00000001   Data   RW         1400    .data               debug.o
    0x200004d2   0x00000014   Data   RW         1631    .data               stm32f10x_rcc.o
    0x200004e6   0x00000002   PAD
    0x200004e8   0x00000004   Data   RW         1808    .data               mc_w.l(rand.o)
    0x200004ec   0x00000004   Data   RW         2239    .data               mc_w.l(mvars.o)
    0x200004f0   0x00000004   Data   RW         2240    .data               mc_w.l(mvars.o)
    0x200004f4   0x00000004   Data   RW         2244    .data               mc_w.l(errno.o)
    0x200004f8   0x00000014   Zero   RW            7    .bss                stm32f10x_target.o
    0x2000050c   0x0000181e   Zero   RW          421    .bss                datalinkservice.o
    0x20001d2a   0x00000002   PAD
    0x20001d2c   0x00000e0c   Zero   RW          436    .bss                linkmanagemententity.o
    0x20002b38   0x000000d0   Zero   RW          466    .bss                ais_msgmodu.o
    0x20002c08   0x00000692   Zero   RW          488    .bss                aisdigitalinterface.o
    0x2000329a   0x00000002   PAD
    0x2000329c   0x00000bf4   Zero   RW          509    .bss                aismsgmodule.o
    0x20003e90   0x00003f50   Zero   RW          530    .bss                slot.o
    0x20007de0   0x000002fc   Zero   RW          544    .bss                tdma.o
    0x200080dc   0x00000038   Zero   RW          561    .bss                deviceinfo.o
    0x20008114   0x0000009c   Zero   RW          579    .bss                aisinfo.o
    0x200081b0   0x000009f4   Zero   RW          597    .bss                msgmanager.o
    0x20008ba4   0x00000044   Zero   RW          625    .bss                adjust.o
    0x20008be8   0x0000017c   Zero   RW          666    .bss                gpsctrl.o
    0x20008d64   0x00000058   Zero   RW          750    .bss                ledctrl.o
    0x20008dbc   0x0000002c   Zero   RW          838    .bss                sleepctrl.o
    0x20008de8   0x000000b8   Zero   RW          867    .bss                testing.o
    0x20008ea0   0x00000970   Zero   RW          925    .bss                ubloxprotocol.o
    0x20009810   0x00000228   Zero   RW          951    .bss                transceiverctrl.o
    0x20009a38   0x00000034   Zero   RW          968    .bss                selfcheck.o
    0x20009a6c   0x00000018   Zero   RW          997    .bss                taskmanager.o
    0x20009a84   0x00000054   Zero   RW         1145    .bss                bkpregister.o
    0x20009ad8   0x00000812   Zero   RW         1181    .bss                gps.o
    0x2000a2ea   0x00000006   PAD
    0x2000a2f0   0x00000028   Zero   RW         1236    .bss                rtc.o
    0x2000a318   0x00000812   Zero   RW         1305    .bss                usart.o
    0x2000ab2a   0x0000000a   Zero   RW         1351    .bss                gpiospi.o
    0x2000ab34   0x00000038   Zero   RW         1365    .bss                si446x.o
    0x2000ab6c   0x00000300   Zero   RW         1399    .bss                debug.o
    0x2000ae6c   0x00000024   Zero   RW         1734    .bss                ptt_lnw.o
    0x2000ae90   0x00000400   Zero   RW          323    HEAP                stm32f10x_startup.o
    0x2000b290   0x00000400   Zero   RW          322    STACK               stm32f10x_startup.o


==============================================================================

Image component sizes


      Code (inc. data)   RO Data    RW Data    ZI Data      Debug   Object Name

      1070          6          0          0          0       5840   24c02.o
       548         16          0         14          0       3801   adc.o
      1824        806          0          0         68       4322   adjust.o
      3732        190          0          3        208      10286   ais_msgmodu.o
      4704        224         19          2       1682      11169   aisdigitalinterface.o
       376         62          0          0        156       6522   aisinfo.o
     16588        120          0          0       3060      43949   aismsgmodule.o
        38          0          0          0          0        454   aisptlmain.o
       208          8          0         84         84       2503   bkpregister.o
      1192         16        512          0          0       6793   common.o
         0          0          0          0          0         32   cortexm3_macro.o
       128          6          0          0          0       1282   dac.o
      3244         34          0          0       6174      16719   datalinkservice.o
       400         56          0          1        768       2702   debug.o
       140         14          0          0         56       3206   deviceinfo.o
       636         10          0          0          0       3344   encrypt.o
         0          0          0          0          0        568   ff.o
       896         70          0        192          0       5177   flashctrl.o
       612         12          0          0         10       4101   gpiospi.o
       588         66          0         20       2066       3695   gps.o
      6408        724        149         40        380      25768   gpsctrl.o
       116          8          0          0          0       1699   initial.o
       216         42          0          0          0        987   ioctrl.o
       256          8          0          8          0       3344   led.o
      1640         44        336          0         88       6725   ledctrl.o
      1204         50          0          0       3596       7209   linkmanagemententity.o
       280         34          0          0          0       1899   main.o
        60          8          0          0          0        651   migrate.o
       176         14          0          0          0       1821   misc.o
      4876        420        175          0       2548      17975   msgmanager.o
      1264         82          0        132          0       4431   parastorage.o
       172          4          0          6          0       2868   physicallayer.o
       316         14          0          3          0       3122   power.o
      1560        384          0          2          0       3577   powerup.o
       696         28          0          0         36       5361   ptt_lnw.o
       288         38          0          0          0       1549   rflinkselfcheck.o
      2296        250          0         88         40       7178   rtc.o
       104          6          0          0          0        722   rxtx.o
        18          0          0          0          0        527   rxtxctrl.o
      2390         64          0         21         52       8618   selfcheck.o
      8296        508          0        509         56      22926   si446x.o
       416         18          0         12         44       5346   sleepctrl.o
       860         10          0          0      16208       5162   slot.o
       404         14          0          0          0       1532   spi.o
       816         24          0          0          0      11209   stm32f10x_adc.o
       152          8          0          0          0       3460   stm32f10x_bkp.o
       252          4          0          0          0       3730   stm32f10x_dac.o
        40          4          0          0          0        856   stm32f10x_dbgmcu.o
       456         10          0          0          0       4606   stm32f10x_dma.o
       232          8          0          0          0       2323   stm32f10x_exti.o
      1148         22          0          0          0       9228   stm32f10x_flash_1.o
       620         36          0          0          0       5785   stm32f10x_gpio.o
       250         60          0          0          0       7848   stm32f10x_it.o
        60          6          0          0          0       1297   stm32f10x_iwdg.o
       172         12          0          0          0       1967   stm32f10x_pwr.o
       712         40          0         20          0       8920   stm32f10x_rcc.o
       272          6          0          0          0       3164   stm32f10x_rtc.o
       628         14          0          0          0       6926   stm32f10x_spi.o
         8          4        304          0       2048        352   stm32f10x_startup.o
       664         18          0          1         20     360158   stm32f10x_target.o
      2804         86          0          0          0      22906   stm32f10x_tim.o
       808         22          0          0          0       8704   stm32f10x_usart.o
        96          4          0          8          0       2400   systemtick.o
       524        110         17          0         24       3344   taskmanager.o
      5284        266        394          0        764      22481   tdma.o
      1136        122        154          2        184       9521   testing.o
      1684        118          0         56          0       8732   tim.o
      1848        300        154          0        552       8586   transceiverctrl.o
     10208       1978          0          0          0      13727   uartmsg.o
      1680        114        426          0       2416      11687   ubloxprotocol.o
      1240         44          0          8       2066       7097   usart.o
        76          8          0          1          0        776   wdg.o

    ----------------------------------------------------------------------
    105116       7936       2684       1256      45464     829252   Object Totals
         0          0         32          0          0          0   (incl. Generated)
        10          0         12         23         10          0   (incl. Padding)

    ----------------------------------------------------------------------

      Code (inc. data)   RO Data    RW Data    ZI Data      Debug   Library Member Name

       624         52         80          0          0        168   asin.o
        42          0          0          0          0         84   atof.o
       156          8          0          0          0        104   cos.o
       252         22         48          0          0        124   cos_i.o
        68         10          0          0          0        408   dunder.o
        40          0          0          0          0         68   fpclassify.o
       170          0          0          0          0         96   poly.o
      2520        190        136          0          0        324   pow.o
         0          0          8          0          0          0   qnan.o
       904         76        200          0          0        140   rred.o
       160         10          0          0          0        108   sin.o
       236         12         40          0          0        128   sin_i.o
        76          0          0          0          0         84   sqrt.o
        28          0          0          0          0         80   strtod.o
        86          0          0          0          0          0   __dczerorl2.o
        28          0          0          0          0         68   _chval.o
        64          0          0          0          0         84   _sgetc.o
       158          0          0          0          0         92   _strtoul.o
        26          0          0          0          0         80   atoi.o
        26          0          0          0          0         80   atol.o
         8          4        133          0          0         68   ctype_o.o
         0          0          0          0          0          0   entry.o
         0          0          0          0          0          0   entry10a.o
         0          0          0          0          0          0   entry11a.o
         8          4          0          0          0          0   entry2.o
         4          0          0          0          0          0   entry5.o
         0          0          0          0          0          0   entry7b.o
         0          0          0          0          0          0   entry8b.o
         8          4          0          0          0          0   entry9a.o
        32         16          0          4          0        204   errno.o
        30          0          0          0          0          0   handlers.o
        36          8          0          0          0         68   init.o
        18          0          0          0          0         76   isspace_o.o
         0          0          0          0          0          0   iusefp.o
        30          0          0          0          0         68   llshl.o
        36          0          0          0          0         68   llsshr.o
        32          0          0          0          0         68   llushr.o
       188         20          0          0          0        160   malloc.o
        36          0          0          0          0         68   memcpya.o
        36          0          0          0          0        108   memseta.o
         0          0          0          8          0          0   mvars.o
      2280         92          0          0          0        592   printfa.o
        36         10          0          4          0        136   rand.o
       838         12          0          0          0        216   scanf_fp.o
        24          0          0          0          0         68   strcat.o
        18          0          0          0          0         68   strcpy.o
        14          0          0          0          0         68   strlen.o
        40          0          0          0          0         76   strncat.o
        30          0          0          0          0         80   strncmp.o
        24          0          0          0          0         76   strncpy.o
       156         14          0          0          0        120   strtod.o
       112          0          0          0          0         88   strtol.o
       114          0          0          0          0         92   strtoul.o
        44          0          0          0          0         80   uidiv.o
        98          0          0          0          0         92   uldiv.o
        48          0          0          0          0         68   cdcmple.o
        48          0          0          0          0         68   cdrcmple.o
        56          0          0          0          0         88   d2f.o
       334          0          0          0          0        148   dadd.o
       222          0          0          0          0        100   ddiv.o
       186          0          0          0          0        176   depilogue.o
        62          0          0          0          0         80   dfixi.o
        50          0          0          0          0         76   dfixui.o
        48          0          0          0          0         68   dfixul.o
        34          0          0          0          0         76   dflti.o
        26          0          0          0          0         76   dfltui.o
        24          0          0          0          0         76   dfltul.o
       228          0          0          0          0         96   dmul.o
        46          0          0          0          0         80   dscalb.o
       162          0          0          0          0        100   dsqrt.o
        38          0          0          0          0         68   f2d.o
       110          0          0          0          0        168   fepilogue.o
        40          0          0          0          0         68   ffixui.o
       100          0          0          0          0         76   fmul.o

    ----------------------------------------------------------------------
     11868        564        648         16          0       6884   Library Totals
        12          0          3          0          0          0   (incl. Padding)

    ----------------------------------------------------------------------

      Code (inc. data)   RO Data    RW Data    ZI Data      Debug   Library Name

      5276        380        512          0          0       1916   m_ws.l
      4718        184        133         16          0       3212   mc_w.l
      1862          0          0          0          0       1756   mf_w.l

    ----------------------------------------------------------------------
     11868        564        648         16          0       6884   Library Totals

    ----------------------------------------------------------------------

==============================================================================


      Code (inc. data)   RO Data    RW Data    ZI Data      Debug   

    116984       8500       3332       1272      45464     821756   Grand Totals
    116984       8500       3332        772      45464     821756   ELF Image Totals (compressed)
    116984       8500       3332        772          0          0   ROM Totals

==============================================================================

    Total RO  Size (Code + RO Data)               120316 ( 117.50kB)
    Total RW  Size (RW Data + ZI Data)             46736 (  45.64kB)
    Total ROM Size (Code + RO Data + RW Data)     121088 ( 118.25kB)

==============================================================================

